
bomb:     file format elf64-x86-64


Disassembly of section .init:

0000000000000ff8 <_init>:
     ff8:	48 83 ec 08          	sub    $0x8,%rsp
     ffc:	48 8b 05 e5 2f 20 00 	mov    0x202fe5(%rip),%rax        # 203fe8 <__gmon_start__>
    1003:	48 85 c0             	test   %rax,%rax
    1006:	74 02                	je     100a <_init+0x12>
    1008:	ff d0                	callq  *%rax
    100a:	48 83 c4 08          	add    $0x8,%rsp
    100e:	c3                   	retq   

Disassembly of section .plt:

0000000000001010 <.plt>:
    1010:	ff 35 da 2e 20 00    	pushq  0x202eda(%rip)        # 203ef0 <_GLOBAL_OFFSET_TABLE_+0x8>
    1016:	ff 25 dc 2e 20 00    	jmpq   *0x202edc(%rip)        # 203ef8 <_GLOBAL_OFFSET_TABLE_+0x10>
    101c:	0f 1f 40 00          	nopl   0x0(%rax)

0000000000001020 <getenv@plt>:
    1020:	ff 25 da 2e 20 00    	jmpq   *0x202eda(%rip)        # 203f00 <getenv@GLIBC_2.2.5>
    1026:	68 00 00 00 00       	pushq  $0x0
    102b:	e9 e0 ff ff ff       	jmpq   1010 <.plt>

0000000000001030 <strcasecmp@plt>:
    1030:	ff 25 d2 2e 20 00    	jmpq   *0x202ed2(%rip)        # 203f08 <strcasecmp@GLIBC_2.2.5>
    1036:	68 01 00 00 00       	pushq  $0x1
    103b:	e9 d0 ff ff ff       	jmpq   1010 <.plt>

0000000000001040 <__errno_location@plt>:
    1040:	ff 25 ca 2e 20 00    	jmpq   *0x202eca(%rip)        # 203f10 <__errno_location@GLIBC_2.2.5>
    1046:	68 02 00 00 00       	pushq  $0x2
    104b:	e9 c0 ff ff ff       	jmpq   1010 <.plt>

0000000000001050 <strcpy@plt>:
    1050:	ff 25 c2 2e 20 00    	jmpq   *0x202ec2(%rip)        # 203f18 <strcpy@GLIBC_2.2.5>
    1056:	68 03 00 00 00       	pushq  $0x3
    105b:	e9 b0 ff ff ff       	jmpq   1010 <.plt>

0000000000001060 <puts@plt>:
    1060:	ff 25 ba 2e 20 00    	jmpq   *0x202eba(%rip)        # 203f20 <puts@GLIBC_2.2.5>
    1066:	68 04 00 00 00       	pushq  $0x4
    106b:	e9 a0 ff ff ff       	jmpq   1010 <.plt>

0000000000001070 <write@plt>:
    1070:	ff 25 b2 2e 20 00    	jmpq   *0x202eb2(%rip)        # 203f28 <write@GLIBC_2.2.5>
    1076:	68 05 00 00 00       	pushq  $0x5
    107b:	e9 90 ff ff ff       	jmpq   1010 <.plt>

0000000000001080 <__stack_chk_fail@plt>:
    1080:	ff 25 aa 2e 20 00    	jmpq   *0x202eaa(%rip)        # 203f30 <__stack_chk_fail@GLIBC_2.4>
    1086:	68 06 00 00 00       	pushq  $0x6
    108b:	e9 80 ff ff ff       	jmpq   1010 <.plt>

0000000000001090 <alarm@plt>:
    1090:	ff 25 a2 2e 20 00    	jmpq   *0x202ea2(%rip)        # 203f38 <alarm@GLIBC_2.2.5>
    1096:	68 07 00 00 00       	pushq  $0x7
    109b:	e9 70 ff ff ff       	jmpq   1010 <.plt>

00000000000010a0 <close@plt>:
    10a0:	ff 25 9a 2e 20 00    	jmpq   *0x202e9a(%rip)        # 203f40 <close@GLIBC_2.2.5>
    10a6:	68 08 00 00 00       	pushq  $0x8
    10ab:	e9 60 ff ff ff       	jmpq   1010 <.plt>

00000000000010b0 <read@plt>:
    10b0:	ff 25 92 2e 20 00    	jmpq   *0x202e92(%rip)        # 203f48 <read@GLIBC_2.2.5>
    10b6:	68 09 00 00 00       	pushq  $0x9
    10bb:	e9 50 ff ff ff       	jmpq   1010 <.plt>

00000000000010c0 <fgets@plt>:
    10c0:	ff 25 8a 2e 20 00    	jmpq   *0x202e8a(%rip)        # 203f50 <fgets@GLIBC_2.2.5>
    10c6:	68 0a 00 00 00       	pushq  $0xa
    10cb:	e9 40 ff ff ff       	jmpq   1010 <.plt>

00000000000010d0 <signal@plt>:
    10d0:	ff 25 82 2e 20 00    	jmpq   *0x202e82(%rip)        # 203f58 <signal@GLIBC_2.2.5>
    10d6:	68 0b 00 00 00       	pushq  $0xb
    10db:	e9 30 ff ff ff       	jmpq   1010 <.plt>

00000000000010e0 <gethostbyname@plt>:
    10e0:	ff 25 7a 2e 20 00    	jmpq   *0x202e7a(%rip)        # 203f60 <gethostbyname@GLIBC_2.2.5>
    10e6:	68 0c 00 00 00       	pushq  $0xc
    10eb:	e9 20 ff ff ff       	jmpq   1010 <.plt>

00000000000010f0 <__memmove_chk@plt>:
    10f0:	ff 25 72 2e 20 00    	jmpq   *0x202e72(%rip)        # 203f68 <__memmove_chk@GLIBC_2.3.4>
    10f6:	68 0d 00 00 00       	pushq  $0xd
    10fb:	e9 10 ff ff ff       	jmpq   1010 <.plt>

0000000000001100 <strtol@plt>:
    1100:	ff 25 6a 2e 20 00    	jmpq   *0x202e6a(%rip)        # 203f70 <strtol@GLIBC_2.2.5>
    1106:	68 0e 00 00 00       	pushq  $0xe
    110b:	e9 00 ff ff ff       	jmpq   1010 <.plt>

0000000000001110 <fflush@plt>:
    1110:	ff 25 62 2e 20 00    	jmpq   *0x202e62(%rip)        # 203f78 <fflush@GLIBC_2.2.5>
    1116:	68 0f 00 00 00       	pushq  $0xf
    111b:	e9 f0 fe ff ff       	jmpq   1010 <.plt>

0000000000001120 <__isoc99_sscanf@plt>:
    1120:	ff 25 5a 2e 20 00    	jmpq   *0x202e5a(%rip)        # 203f80 <__isoc99_sscanf@GLIBC_2.7>
    1126:	68 10 00 00 00       	pushq  $0x10
    112b:	e9 e0 fe ff ff       	jmpq   1010 <.plt>

0000000000001130 <__printf_chk@plt>:
    1130:	ff 25 52 2e 20 00    	jmpq   *0x202e52(%rip)        # 203f88 <__printf_chk@GLIBC_2.3.4>
    1136:	68 11 00 00 00       	pushq  $0x11
    113b:	e9 d0 fe ff ff       	jmpq   1010 <.plt>

0000000000001140 <fopen@plt>:
    1140:	ff 25 4a 2e 20 00    	jmpq   *0x202e4a(%rip)        # 203f90 <fopen@GLIBC_2.2.5>
    1146:	68 12 00 00 00       	pushq  $0x12
    114b:	e9 c0 fe ff ff       	jmpq   1010 <.plt>

0000000000001150 <gethostname@plt>:
    1150:	ff 25 42 2e 20 00    	jmpq   *0x202e42(%rip)        # 203f98 <gethostname@GLIBC_2.2.5>
    1156:	68 13 00 00 00       	pushq  $0x13
    115b:	e9 b0 fe ff ff       	jmpq   1010 <.plt>

0000000000001160 <exit@plt>:
    1160:	ff 25 3a 2e 20 00    	jmpq   *0x202e3a(%rip)        # 203fa0 <exit@GLIBC_2.2.5>
    1166:	68 14 00 00 00       	pushq  $0x14
    116b:	e9 a0 fe ff ff       	jmpq   1010 <.plt>

0000000000001170 <connect@plt>:
    1170:	ff 25 32 2e 20 00    	jmpq   *0x202e32(%rip)        # 203fa8 <connect@GLIBC_2.2.5>
    1176:	68 15 00 00 00       	pushq  $0x15
    117b:	e9 90 fe ff ff       	jmpq   1010 <.plt>

0000000000001180 <__fprintf_chk@plt>:
    1180:	ff 25 2a 2e 20 00    	jmpq   *0x202e2a(%rip)        # 203fb0 <__fprintf_chk@GLIBC_2.3.4>
    1186:	68 16 00 00 00       	pushq  $0x16
    118b:	e9 80 fe ff ff       	jmpq   1010 <.plt>

0000000000001190 <sleep@plt>:
    1190:	ff 25 22 2e 20 00    	jmpq   *0x202e22(%rip)        # 203fb8 <sleep@GLIBC_2.2.5>
    1196:	68 17 00 00 00       	pushq  $0x17
    119b:	e9 70 fe ff ff       	jmpq   1010 <.plt>

00000000000011a0 <__ctype_b_loc@plt>:
    11a0:	ff 25 1a 2e 20 00    	jmpq   *0x202e1a(%rip)        # 203fc0 <__ctype_b_loc@GLIBC_2.3>
    11a6:	68 18 00 00 00       	pushq  $0x18
    11ab:	e9 60 fe ff ff       	jmpq   1010 <.plt>

00000000000011b0 <__sprintf_chk@plt>:
    11b0:	ff 25 12 2e 20 00    	jmpq   *0x202e12(%rip)        # 203fc8 <__sprintf_chk@GLIBC_2.3.4>
    11b6:	68 19 00 00 00       	pushq  $0x19
    11bb:	e9 50 fe ff ff       	jmpq   1010 <.plt>

00000000000011c0 <socket@plt>:
    11c0:	ff 25 0a 2e 20 00    	jmpq   *0x202e0a(%rip)        # 203fd0 <socket@GLIBC_2.2.5>
    11c6:	68 1a 00 00 00       	pushq  $0x1a
    11cb:	e9 40 fe ff ff       	jmpq   1010 <.plt>

Disassembly of section .plt.got:

00000000000011d0 <__cxa_finalize@plt>:
    11d0:	ff 25 22 2e 20 00    	jmpq   *0x202e22(%rip)        # 203ff8 <__cxa_finalize@GLIBC_2.2.5>
    11d6:	66 90                	xchg   %ax,%ax

Disassembly of section .text:

00000000000011e0 <_start>:
    11e0:	31 ed                	xor    %ebp,%ebp
    11e2:	49 89 d1             	mov    %rdx,%r9
    11e5:	5e                   	pop    %rsi
    11e6:	48 89 e2             	mov    %rsp,%rdx
    11e9:	48 83 e4 f0          	and    $0xfffffffffffffff0,%rsp
    11ed:	50                   	push   %rax
    11ee:	54                   	push   %rsp
    11ef:	4c 8d 05 ea 19 00 00 	lea    0x19ea(%rip),%r8        # 2be0 <__libc_csu_fini>
    11f6:	48 8d 0d 73 19 00 00 	lea    0x1973(%rip),%rcx        # 2b70 <__libc_csu_init>
    11fd:	48 8d 3d e6 00 00 00 	lea    0xe6(%rip),%rdi        # 12ea <main>
    1204:	ff 15 d6 2d 20 00    	callq  *0x202dd6(%rip)        # 203fe0 <__libc_start_main@GLIBC_2.2.5>
    120a:	f4                   	hlt    
    120b:	0f 1f 44 00 00       	nopl   0x0(%rax,%rax,1)

0000000000001210 <deregister_tm_clones>:
    1210:	48 8d 3d 69 34 20 00 	lea    0x203469(%rip),%rdi        # 204680 <stdout@@GLIBC_2.2.5>
    1217:	55                   	push   %rbp
    1218:	48 8d 05 61 34 20 00 	lea    0x203461(%rip),%rax        # 204680 <stdout@@GLIBC_2.2.5>
    121f:	48 39 f8             	cmp    %rdi,%rax
    1222:	48 89 e5             	mov    %rsp,%rbp
    1225:	74 19                	je     1240 <deregister_tm_clones+0x30>
    1227:	48 8b 05 aa 2d 20 00 	mov    0x202daa(%rip),%rax        # 203fd8 <_ITM_deregisterTMCloneTable>
    122e:	48 85 c0             	test   %rax,%rax
    1231:	74 0d                	je     1240 <deregister_tm_clones+0x30>
    1233:	5d                   	pop    %rbp
    1234:	ff e0                	jmpq   *%rax
    1236:	66 2e 0f 1f 84 00 00 	nopw   %cs:0x0(%rax,%rax,1)
    123d:	00 00 00 
    1240:	5d                   	pop    %rbp
    1241:	c3                   	retq   
    1242:	0f 1f 40 00          	nopl   0x0(%rax)
    1246:	66 2e 0f 1f 84 00 00 	nopw   %cs:0x0(%rax,%rax,1)
    124d:	00 00 00 

0000000000001250 <register_tm_clones>:
    1250:	48 8d 3d 29 34 20 00 	lea    0x203429(%rip),%rdi        # 204680 <stdout@@GLIBC_2.2.5>
    1257:	48 8d 35 22 34 20 00 	lea    0x203422(%rip),%rsi        # 204680 <stdout@@GLIBC_2.2.5>
    125e:	55                   	push   %rbp
    125f:	48 29 fe             	sub    %rdi,%rsi
    1262:	48 89 e5             	mov    %rsp,%rbp
    1265:	48 c1 fe 03          	sar    $0x3,%rsi
    1269:	48 89 f0             	mov    %rsi,%rax
    126c:	48 c1 e8 3f          	shr    $0x3f,%rax
    1270:	48 01 c6             	add    %rax,%rsi
    1273:	48 d1 fe             	sar    %rsi
    1276:	74 18                	je     1290 <register_tm_clones+0x40>
    1278:	48 8b 05 71 2d 20 00 	mov    0x202d71(%rip),%rax        # 203ff0 <_ITM_registerTMCloneTable>
    127f:	48 85 c0             	test   %rax,%rax
    1282:	74 0c                	je     1290 <register_tm_clones+0x40>
    1284:	5d                   	pop    %rbp
    1285:	ff e0                	jmpq   *%rax
    1287:	66 0f 1f 84 00 00 00 	nopw   0x0(%rax,%rax,1)
    128e:	00 00 
    1290:	5d                   	pop    %rbp
    1291:	c3                   	retq   
    1292:	0f 1f 40 00          	nopl   0x0(%rax)
    1296:	66 2e 0f 1f 84 00 00 	nopw   %cs:0x0(%rax,%rax,1)
    129d:	00 00 00 

00000000000012a0 <__do_global_dtors_aux>:
    12a0:	80 3d 01 34 20 00 00 	cmpb   $0x0,0x203401(%rip)        # 2046a8 <completed.7697>
    12a7:	75 2f                	jne    12d8 <__do_global_dtors_aux+0x38>
    12a9:	48 83 3d 47 2d 20 00 	cmpq   $0x0,0x202d47(%rip)        # 203ff8 <__cxa_finalize@GLIBC_2.2.5>
    12b0:	00 
    12b1:	55                   	push   %rbp
    12b2:	48 89 e5             	mov    %rsp,%rbp
    12b5:	74 0c                	je     12c3 <__do_global_dtors_aux+0x23>
    12b7:	48 8b 3d 4a 2d 20 00 	mov    0x202d4a(%rip),%rdi        # 204008 <__dso_handle>
    12be:	e8 0d ff ff ff       	callq  11d0 <__cxa_finalize@plt>
    12c3:	e8 48 ff ff ff       	callq  1210 <deregister_tm_clones>
    12c8:	c6 05 d9 33 20 00 01 	movb   $0x1,0x2033d9(%rip)        # 2046a8 <completed.7697>
    12cf:	5d                   	pop    %rbp
    12d0:	c3                   	retq   
    12d1:	0f 1f 80 00 00 00 00 	nopl   0x0(%rax)
    12d8:	f3 c3                	repz retq 
    12da:	66 0f 1f 44 00 00    	nopw   0x0(%rax,%rax,1)

00000000000012e0 <frame_dummy>:
    12e0:	55                   	push   %rbp
    12e1:	48 89 e5             	mov    %rsp,%rbp
    12e4:	5d                   	pop    %rbp
    12e5:	e9 66 ff ff ff       	jmpq   1250 <register_tm_clones>

00000000000012ea <main>:
    12ea:	53                   	push   %rbx
    12eb:	83 ff 01             	cmp    $0x1,%edi
    12ee:	0f 84 f8 00 00 00    	je     13ec <main+0x102>
    12f4:	48 89 f3             	mov    %rsi,%rbx
    12f7:	83 ff 02             	cmp    $0x2,%edi
    12fa:	0f 85 21 01 00 00    	jne    1421 <main+0x137>
    1300:	48 8b 7e 08          	mov    0x8(%rsi),%rdi
    1304:	48 8d 35 f9 18 00 00 	lea    0x18f9(%rip),%rsi        # 2c04 <_IO_stdin_used+0x4>
    130b:	e8 30 fe ff ff       	callq  1140 <fopen@plt>
    1310:	48 89 05 99 33 20 00 	mov    %rax,0x203399(%rip)        # 2046b0 <infile>
    1317:	48 85 c0             	test   %rax,%rax
    131a:	0f 84 df 00 00 00    	je     13ff <main+0x115>
    1320:	e8 4b 07 00 00       	callq  1a70 <initialize_bomb>
    1325:	48 8d 3d 5c 19 00 00 	lea    0x195c(%rip),%rdi        # 2c88 <_IO_stdin_used+0x88>
    132c:	e8 2f fd ff ff       	callq  1060 <puts@plt>
    1331:	48 8d 3d 90 19 00 00 	lea    0x1990(%rip),%rdi        # 2cc8 <_IO_stdin_used+0xc8>
    1338:	e8 23 fd ff ff       	callq  1060 <puts@plt>
    133d:	e8 48 0a 00 00       	callq  1d8a <read_line>
    1342:	48 89 c7             	mov    %rax,%rdi
    1345:	e8 fa 00 00 00       	callq  1444 <phase_1>
    134a:	e8 7f 0b 00 00       	callq  1ece <phase_defused>
    134f:	48 8d 3d a2 19 00 00 	lea    0x19a2(%rip),%rdi        # 2cf8 <_IO_stdin_used+0xf8>
    1356:	e8 05 fd ff ff       	callq  1060 <puts@plt>
    135b:	e8 2a 0a 00 00       	callq  1d8a <read_line>
    1360:	48 89 c7             	mov    %rax,%rdi
    1363:	e8 fc 00 00 00       	callq  1464 <phase_2>
    1368:	e8 61 0b 00 00       	callq  1ece <phase_defused>
    136d:	48 8d 3d c9 18 00 00 	lea    0x18c9(%rip),%rdi        # 2c3d <_IO_stdin_used+0x3d>
    1374:	e8 e7 fc ff ff       	callq  1060 <puts@plt>
    1379:	e8 0c 0a 00 00       	callq  1d8a <read_line>
    137e:	48 89 c7             	mov    %rax,%rdi
    1381:	e8 4d 01 00 00       	callq  14d3 <phase_3>
    1386:	e8 43 0b 00 00       	callq  1ece <phase_defused>
    138b:	48 8d 3d c9 18 00 00 	lea    0x18c9(%rip),%rdi        # 2c5b <_IO_stdin_used+0x5b>
    1392:	e8 c9 fc ff ff       	callq  1060 <puts@plt>
    1397:	e8 ee 09 00 00       	callq  1d8a <read_line>
    139c:	48 89 c7             	mov    %rax,%rdi
    139f:	e8 e1 02 00 00       	callq  1685 <phase_4>
    13a4:	e8 25 0b 00 00       	callq  1ece <phase_defused>
    13a9:	48 8d 3d 78 19 00 00 	lea    0x1978(%rip),%rdi        # 2d28 <_IO_stdin_used+0x128>
    13b0:	e8 ab fc ff ff       	callq  1060 <puts@plt>
    13b5:	e8 d0 09 00 00       	callq  1d8a <read_line>
    13ba:	48 89 c7             	mov    %rax,%rdi
    13bd:	e8 38 03 00 00       	callq  16fa <phase_5>
    13c2:	e8 07 0b 00 00       	callq  1ece <phase_defused>
    13c7:	48 8d 3d 9c 18 00 00 	lea    0x189c(%rip),%rdi        # 2c6a <_IO_stdin_used+0x6a>
    13ce:	e8 8d fc ff ff       	callq  1060 <puts@plt>
    13d3:	e8 b2 09 00 00       	callq  1d8a <read_line>
    13d8:	48 89 c7             	mov    %rax,%rdi
    13db:	e8 ad 03 00 00       	callq  178d <phase_6>
    13e0:	e8 e9 0a 00 00       	callq  1ece <phase_defused>
    13e5:	b8 00 00 00 00       	mov    $0x0,%eax
    13ea:	5b                   	pop    %rbx
    13eb:	c3                   	retq   
    13ec:	48 8b 05 9d 32 20 00 	mov    0x20329d(%rip),%rax        # 204690 <stdin@@GLIBC_2.2.5>
    13f3:	48 89 05 b6 32 20 00 	mov    %rax,0x2032b6(%rip)        # 2046b0 <infile>
    13fa:	e9 21 ff ff ff       	jmpq   1320 <main+0x36>
    13ff:	48 8b 4b 08          	mov    0x8(%rbx),%rcx
    1403:	48 8b 13             	mov    (%rbx),%rdx
    1406:	48 8d 35 f9 17 00 00 	lea    0x17f9(%rip),%rsi        # 2c06 <_IO_stdin_used+0x6>
    140d:	bf 01 00 00 00       	mov    $0x1,%edi
    1412:	e8 19 fd ff ff       	callq  1130 <__printf_chk@plt>
    1417:	bf 08 00 00 00       	mov    $0x8,%edi
    141c:	e8 3f fd ff ff       	callq  1160 <exit@plt>
    1421:	48 8b 16             	mov    (%rsi),%rdx
    1424:	48 8d 35 f8 17 00 00 	lea    0x17f8(%rip),%rsi        # 2c23 <_IO_stdin_used+0x23>
    142b:	bf 01 00 00 00       	mov    $0x1,%edi
    1430:	b8 00 00 00 00       	mov    $0x0,%eax
    1435:	e8 f6 fc ff ff       	callq  1130 <__printf_chk@plt>
    143a:	bf 08 00 00 00       	mov    $0x8,%edi
    143f:	e8 1c fd ff ff       	callq  1160 <exit@plt>

0000000000001444 <phase_1>:
    1444:	48 83 ec 08          	sub    $0x8,%rsp
    1448:	48 8d 35 01 19 00 00 	lea    0x1901(%rip),%rsi        # 2d50 <_IO_stdin_used+0x150>
    144f:	e8 b5 05 00 00       	callq  1a09 <strings_not_equal>
    1454:	85 c0                	test   %eax,%eax
    1456:	75 05                	jne    145d <phase_1+0x19>
    1458:	48 83 c4 08          	add    $0x8,%rsp
    145c:	c3                   	retq   
    145d:	e8 ab 08 00 00       	callq  1d0d <explode_bomb>
    1462:	eb f4                	jmp    1458 <phase_1+0x14>

0000000000001464 <phase_2>:
    1464:	55                   	push   %rbp
    1465:	53                   	push   %rbx
    1466:	48 83 ec 28          	sub    $0x28,%rsp
    146a:	64 48 8b 04 25 28 00 	mov    %fs:0x28,%rax
    1471:	00 00 
    1473:	48 89 44 24 18       	mov    %rax,0x18(%rsp)
    1478:	31 c0                	xor    %eax,%eax
    147a:	48 89 e6             	mov    %rsp,%rsi
    147d:	e8 c7 08 00 00       	callq  1d49 <read_six_numbers>
    1482:	83 3c 24 00          	cmpl   $0x0,(%rsp)
    1486:	75 07                	jne    148f <phase_2+0x2b>
    1488:	83 7c 24 04 01       	cmpl   $0x1,0x4(%rsp)
    148d:	74 05                	je     1494 <phase_2+0x30>
    148f:	e8 79 08 00 00       	callq  1d0d <explode_bomb>
    1494:	48 89 e3             	mov    %rsp,%rbx
    1497:	48 8d 6b 10          	lea    0x10(%rbx),%rbp
    149b:	eb 09                	jmp    14a6 <phase_2+0x42>
    149d:	48 83 c3 04          	add    $0x4,%rbx
    14a1:	48 39 eb             	cmp    %rbp,%rbx
    14a4:	74 11                	je     14b7 <phase_2+0x53>
    14a6:	8b 43 04             	mov    0x4(%rbx),%eax
    14a9:	03 03                	add    (%rbx),%eax
    14ab:	39 43 08             	cmp    %eax,0x8(%rbx)
    14ae:	74 ed                	je     149d <phase_2+0x39>
    14b0:	e8 58 08 00 00       	callq  1d0d <explode_bomb>
    14b5:	eb e6                	jmp    149d <phase_2+0x39>
    14b7:	48 8b 44 24 18       	mov    0x18(%rsp),%rax
    14bc:	64 48 33 04 25 28 00 	xor    %fs:0x28,%rax
    14c3:	00 00 
    14c5:	75 07                	jne    14ce <phase_2+0x6a>
    14c7:	48 83 c4 28          	add    $0x28,%rsp
    14cb:	5b                   	pop    %rbx
    14cc:	5d                   	pop    %rbp
    14cd:	c3                   	retq   
    14ce:	e8 ad fb ff ff       	callq  1080 <__stack_chk_fail@plt>
00000000000014d3 <phase_3>:
    14d3:	48 83 ec 28          	sub    $0x28,%rsp
    14d7:	64 48 8b 04 25 28 00 	mov    %fs:0x28,%rax
    14de:	00 00 
    14e0:	48 89 44 24 18       	mov    %rax,0x18(%rsp)
    14e5:	31 c0                	xor    %eax,%eax
    14e7:	48 8d 4c 24 0f       	lea    0xf(%rsp),%rcx
    14ec:	48 8d 54 24 10       	lea    0x10(%rsp),%rdx
    14f1:	4c 8d 44 24 14       	lea    0x14(%rsp),%r8
    14f6:	48 8d 35 b1 18 00 00 	lea    0x18b1(%rip),%rsi        # 2dae <_IO_stdin_used+0x1ae>
    14fd:	e8 1e fc ff ff       	callq  1120 <__isoc99_sscanf@plt>
    1502:	83 f8 02             	cmp    $0x2,%eax
    1505:	7e 1f                	jle    1526 <phase_3+0x53>
    1507:	83 7c 24 10 07       	cmpl   $0x7,0x10(%rsp)
    150c:	0f 87 05 01 00 00    	ja     1617 <phase_3+0x144>
    1512:	8b 44 24 10          	mov    0x10(%rsp),%eax
    1516:	48 8d 15 a3 18 00 00 	lea    0x18a3(%rip),%rdx        # 2dc0 <_IO_stdin_used+0x1c0>
    151d:	48 63 04 82          	movslq (%rdx,%rax,4),%rax
    1521:	48 01 d0             	add    %rdx,%rax
    1524:	ff e0                	jmpq   *%rax
    1526:	e8 e2 07 00 00       	callq  1d0d <explode_bomb>
    152b:	eb da                	jmp    1507 <phase_3+0x34>
    152d:	b8 77 00 00 00       	mov    $0x77,%eax
    1532:	81 7c 24 14 d2 00 00 	cmpl   $0xd2,0x14(%rsp)
    1539:	00 
    153a:	0f 84 e1 00 00 00    	je     1621 <phase_3+0x14e>
    1540:	e8 c8 07 00 00       	callq  1d0d <explode_bomb>
    1545:	b8 77 00 00 00       	mov    $0x77,%eax
    154a:	e9 d2 00 00 00       	jmpq   1621 <phase_3+0x14e>
    154f:	b8 62 00 00 00       	mov    $0x62,%eax
    1554:	81 7c 24 14 c5 02 00 	cmpl   $0x2c5,0x14(%rsp)
    155b:	00 
    155c:	0f 84 bf 00 00 00    	je     1621 <phase_3+0x14e>
    1562:	e8 a6 07 00 00       	callq  1d0d <explode_bomb>
    1567:	b8 62 00 00 00       	mov    $0x62,%eax
    156c:	e9 b0 00 00 00       	jmpq   1621 <phase_3+0x14e>
    1571:	b8 76 00 00 00       	mov    $0x76,%eax
    1576:	81 7c 24 14 21 03 00 	cmpl   $0x321,0x14(%rsp)
    157d:	00 
    157e:	0f 84 9d 00 00 00    	je     1621 <phase_3+0x14e>
    1584:	e8 84 07 00 00       	callq  1d0d <explode_bomb>
    1589:	b8 76 00 00 00       	mov    $0x76,%eax
    158e:	e9 8e 00 00 00       	jmpq   1621 <phase_3+0x14e>
    1593:	b8 65 00 00 00       	mov    $0x65,%eax
    1598:	81 7c 24 14 67 03 00 	cmpl   $0x367,0x14(%rsp)
    159f:	00 
    15a0:	74 7f                	je     1621 <phase_3+0x14e>
    15a2:	e8 66 07 00 00       	callq  1d0d <explode_bomb>
    15a7:	b8 65 00 00 00       	mov    $0x65,%eax
    15ac:	eb 73                	jmp    1621 <phase_3+0x14e>
    15ae:	b8 61 00 00 00       	mov    $0x61,%eax
    15b3:	81 7c 24 14 e8 02 00 	cmpl   $0x2e8,0x14(%rsp)
    15ba:	00 
    15bb:	74 64                	je     1621 <phase_3+0x14e>
    15bd:	e8 4b 07 00 00       	callq  1d0d <explode_bomb>
    15c2:	b8 61 00 00 00       	mov    $0x61,%eax
    15c7:	eb 58                	jmp    1621 <phase_3+0x14e>
    15c9:	b8 6f 00 00 00       	mov    $0x6f,%eax
    15ce:	81 7c 24 14 87 03 00 	cmpl   $0x387,0x14(%rsp)
    15d5:	00 
    15d6:	74 49                	je     1621 <phase_3+0x14e>
    15d8:	e8 30 07 00 00       	callq  1d0d <explode_bomb>
    15dd:	b8 6f 00 00 00       	mov    $0x6f,%eax
    15e2:	eb 3d                	jmp    1621 <phase_3+0x14e>
    15e4:	b8 70 00 00 00       	mov    $0x70,%eax
    15e9:	81 7c 24 14 97 01 00 	cmpl   $0x197,0x14(%rsp)
    15f0:	00 
    15f1:	74 2e                	je     1621 <phase_3+0x14e>
    15f3:	e8 15 07 00 00       	callq  1d0d <explode_bomb>
    15f8:	b8 70 00 00 00       	mov    $0x70,%eax
    15fd:	eb 22                	jmp    1621 <phase_3+0x14e>
    15ff:	b8 68 00 00 00       	mov    $0x68,%eax
    1604:	83 7c 24 14 3c       	cmpl   $0x3c,0x14(%rsp)
    1609:	74 16                	je     1621 <phase_3+0x14e>
    160b:	e8 fd 06 00 00       	callq  1d0d <explode_bomb>
    1610:	b8 68 00 00 00       	mov    $0x68,%eax
    1615:	eb 0a                	jmp    1621 <phase_3+0x14e>
    1617:	e8 f1 06 00 00       	callq  1d0d <explode_bomb>
    161c:	b8 79 00 00 00       	mov    $0x79,%eax
    1621:	38 44 24 0f          	cmp    %al,0xf(%rsp)
    1625:	74 05                	je     162c <phase_3+0x159>
    1627:	e8 e1 06 00 00       	callq  1d0d <explode_bomb>
    162c:	48 8b 44 24 18       	mov    0x18(%rsp),%rax
    1631:	64 48 33 04 25 28 00 	xor    %fs:0x28,%rax
    1638:	00 00 
    163a:	75 05                	jne    1641 <phase_3+0x16e>
    163c:	48 83 c4 28          	add    $0x28,%rsp
    1640:	c3                   	retq   
    1641:	e8 3a fa ff ff       	callq  1080 <__stack_chk_fail@plt>

0000000000001646 <func4>:
    1646:	48 83 ec 08          	sub    $0x8,%rsp
    164a:	89 d0                	mov    %edx,%eax
    164c:	29 f0                	sub    %esi,%eax
    164e:	89 c1                	mov    %eax,%ecx
    1650:	c1 e9 1f             	shr    $0x1f,%ecx
    1653:	01 c1                	add    %eax,%ecx
    1655:	d1 f9                	sar    %ecx
    1657:	01 f1                	add    %esi,%ecx
    1659:	39 f9                	cmp    %edi,%ecx
    165b:	7f 0e                	jg     166b <func4+0x25>
    165d:	b8 00 00 00 00       	mov    $0x0,%eax
    1662:	39 f9                	cmp    %edi,%ecx
    1664:	7c 11                	jl     1677 <func4+0x31>
    1666:	48 83 c4 08          	add    $0x8,%rsp
    166a:	c3                   	retq   
    166b:	8d 51 ff             	lea    -0x1(%rcx),%edx
    166e:	e8 d3 ff ff ff       	callq  1646 <func4>
    1673:	01 c0                	add    %eax,%eax
    1675:	eb ef                	jmp    1666 <func4+0x20>
    1677:	8d 71 01             	lea    0x1(%rcx),%esi
    167a:	e8 c7 ff ff ff       	callq  1646 <func4>
    167f:	8d 44 00 01          	lea    0x1(%rax,%rax,1),%eax
    1683:	eb e1                	jmp    1666 <func4+0x20>

0000000000001685 <phase_4>:
    1685:	48 83 ec 18          	sub    $0x18,%rsp
    1689:	64 48 8b 04 25 28 00 	mov    %fs:0x28,%rax
    1690:	00 00 
    1692:	48 89 44 24 08       	mov    %rax,0x8(%rsp)
    1697:	31 c0                	xor    %eax,%eax
    1699:	48 8d 4c 24 04       	lea    0x4(%rsp),%rcx
    169e:	48 89 e2             	mov    %rsp,%rdx
    16a1:	48 8d 35 c5 19 00 00 	lea    0x19c5(%rip),%rsi        # 306d <array.3418+0x28d>
    16a8:	e8 73 fa ff ff       	callq  1120 <__isoc99_sscanf@plt>
    16ad:	83 f8 02             	cmp    $0x2,%eax
    16b0:	75 06                	jne    16b8 <phase_4+0x33>
    16b2:	83 3c 24 0e          	cmpl   $0xe,(%rsp)
    16b6:	76 05                	jbe    16bd <phase_4+0x38>
    16b8:	e8 50 06 00 00       	callq  1d0d <explode_bomb>
    16bd:	ba 0e 00 00 00       	mov    $0xe,%edx
    16c2:	be 00 00 00 00       	mov    $0x0,%esi
    16c7:	8b 3c 24             	mov    (%rsp),%edi
    16ca:	e8 77 ff ff ff       	callq  1646 <func4>
    16cf:	83 f8 05             	cmp    $0x5,%eax
    16d2:	75 07                	jne    16db <phase_4+0x56>
    16d4:	83 7c 24 04 05       	cmpl   $0x5,0x4(%rsp)
    16d9:	74 05                	je     16e0 <phase_4+0x5b>
    16db:	e8 2d 06 00 00       	callq  1d0d <explode_bomb>
    16e0:	48 8b 44 24 08       	mov    0x8(%rsp),%rax
    16e5:	64 48 33 04 25 28 00 	xor    %fs:0x28,%rax
    16ec:	00 00 
    16ee:	75 05                	jne    16f5 <phase_4+0x70>
    16f0:	48 83 c4 18          	add    $0x18,%rsp
    16f4:	c3                   	retq   
    16f5:	e8 86 f9 ff ff       	callq  1080 <__stack_chk_fail@plt>

00000000000016fa <phase_5>:
    16fa:	48 83 ec 18          	sub    $0x18,%rsp
    16fe:	64 48 8b 04 25 28 00 	mov    %fs:0x28,%rax
    1705:	00 00 
    1707:	48 89 44 24 08       	mov    %rax,0x8(%rsp)
    170c:	31 c0                	xor    %eax,%eax
    170e:	48 8d 4c 24 04       	lea    0x4(%rsp),%rcx
    1713:	48 89 e2             	mov    %rsp,%rdx
    1716:	48 8d 35 50 19 00 00 	lea    0x1950(%rip),%rsi        # 306d <array.3418+0x28d>
    171d:	e8 fe f9 ff ff       	callq  1120 <__isoc99_sscanf@plt>
    1722:	83 f8 01             	cmp    $0x1,%eax
    1725:	7e 5a                	jle    1781 <phase_5+0x87>
    1727:	8b 04 24             	mov    (%rsp),%eax
    172a:	83 e0 0f             	and    $0xf,%eax
    172d:	89 04 24             	mov    %eax,(%rsp)
    1730:	83 f8 0f             	cmp    $0xf,%eax
    1733:	74 32                	je     1767 <phase_5+0x6d>
    1735:	b9 00 00 00 00       	mov    $0x0,%ecx
    173a:	ba 00 00 00 00       	mov    $0x0,%edx
    173f:	48 8d 35 9a 16 00 00 	lea    0x169a(%rip),%rsi        # 2de0 <array.3418>
    1746:	83 c2 01             	add    $0x1,%edx
    1749:	48 98                	cltq   
    174b:	8b 04 86             	mov    (%rsi,%rax,4),%eax
    174e:	01 c1                	add    %eax,%ecx
    1750:	83 f8 0f             	cmp    $0xf,%eax
    1753:	75 f1                	jne    1746 <phase_5+0x4c>
    1755:	c7 04 24 0f 00 00 00 	movl   $0xf,(%rsp)
    175c:	83 fa 0f             	cmp    $0xf,%edx
    175f:	75 06                	jne    1767 <phase_5+0x6d>
    1761:	39 4c 24 04          	cmp    %ecx,0x4(%rsp)
    1765:	74 05                	je     176c <phase_5+0x72>
    1767:	e8 a1 05 00 00       	callq  1d0d <explode_bomb>
    176c:	48 8b 44 24 08       	mov    0x8(%rsp),%rax
    1771:	64 48 33 04 25 28 00 	xor    %fs:0x28,%rax
    1778:	00 00 
    177a:	75 0c                	jne    1788 <phase_5+0x8e>
    177c:	48 83 c4 18          	add    $0x18,%rsp
    1780:	c3                   	retq   
    1781:	e8 87 05 00 00       	callq  1d0d <explode_bomb>
    1786:	eb 9f                	jmp    1727 <phase_5+0x2d>
    1788:	e8 f3 f8 ff ff       	callq  1080 <__stack_chk_fail@plt>

000000000000178d <phase_6>:
    178d:	41 56                	push   %r14
    178f:	41 55                	push   %r13
    1791:	41 54                	push   %r12
    1793:	55                   	push   %rbp
    1794:	53                   	push   %rbx
    1795:	48 83 ec 60          	sub    $0x60,%rsp
    1799:	64 48 8b 04 25 28 00 	mov    %fs:0x28,%rax
    17a0:	00 00 
    17a2:	48 89 44 24 58       	mov    %rax,0x58(%rsp)
    17a7:	31 c0                	xor    %eax,%eax
    17a9:	49 89 e5             	mov    %rsp,%r13
    17ac:	4c 89 ee             	mov    %r13,%rsi
    17af:	e8 95 05 00 00       	callq  1d49 <read_six_numbers>
    17b4:	4d 89 ec             	mov    %r13,%r12
    17b7:	41 be 00 00 00 00    	mov    $0x0,%r14d
    17bd:	eb 25                	jmp    17e4 <phase_6+0x57>
    17bf:	e8 49 05 00 00       	callq  1d0d <explode_bomb>
    17c4:	eb 2d                	jmp    17f3 <phase_6+0x66>
    17c6:	83 c3 01             	add    $0x1,%ebx
    17c9:	83 fb 05             	cmp    $0x5,%ebx
    17cc:	7f 12                	jg     17e0 <phase_6+0x53>
    17ce:	48 63 c3             	movslq %ebx,%rax
    17d1:	8b 04 84             	mov    (%rsp,%rax,4),%eax
    17d4:	39 45 00             	cmp    %eax,0x0(%rbp)
    17d7:	75 ed                	jne    17c6 <phase_6+0x39>
    17d9:	e8 2f 05 00 00       	callq  1d0d <explode_bomb>
    17de:	eb e6                	jmp    17c6 <phase_6+0x39>
    17e0:	49 83 c5 04          	add    $0x4,%r13
    17e4:	4c 89 ed             	mov    %r13,%rbp
    17e7:	41 8b 45 00          	mov    0x0(%r13),%eax
    17eb:	83 e8 01             	sub    $0x1,%eax
    17ee:	83 f8 05             	cmp    $0x5,%eax
    17f1:	77 cc                	ja     17bf <phase_6+0x32>
    17f3:	41 83 c6 01          	add    $0x1,%r14d
    17f7:	41 83 fe 06          	cmp    $0x6,%r14d
    17fb:	74 05                	je     1802 <phase_6+0x75>
    17fd:	44 89 f3             	mov    %r14d,%ebx
    1800:	eb cc                	jmp    17ce <phase_6+0x41>
    1802:	49 8d 4c 24 18       	lea    0x18(%r12),%rcx
    1807:	ba 07 00 00 00       	mov    $0x7,%edx
    180c:	89 d0                	mov    %edx,%eax
    180e:	41 2b 04 24          	sub    (%r12),%eax
    1812:	41 89 04 24          	mov    %eax,(%r12)
    1816:	49 83 c4 04          	add    $0x4,%r12
    181a:	4c 39 e1             	cmp    %r12,%rcx
    181d:	75 ed                	jne    180c <phase_6+0x7f>
    181f:	be 00 00 00 00       	mov    $0x0,%esi
    1824:	eb 1a                	jmp    1840 <phase_6+0xb3>
    1826:	48 8b 52 08          	mov    0x8(%rdx),%rdx
    182a:	83 c0 01             	add    $0x1,%eax
    182d:	39 c8                	cmp    %ecx,%eax
    182f:	75 f5                	jne    1826 <phase_6+0x99>
    1831:	48 89 54 f4 20       	mov    %rdx,0x20(%rsp,%rsi,8)
    1836:	48 83 c6 01          	add    $0x1,%rsi
    183a:	48 83 fe 06          	cmp    $0x6,%rsi
    183e:	74 16                	je     1856 <phase_6+0xc9>
    1840:	8b 0c b4             	mov    (%rsp,%rsi,4),%ecx
    1843:	b8 01 00 00 00       	mov    $0x1,%eax
    1848:	48 8d 15 d1 29 20 00 	lea    0x2029d1(%rip),%rdx        # 204220 <node1>
    184f:	83 f9 01             	cmp    $0x1,%ecx
    1852:	7f d2                	jg     1826 <phase_6+0x99>
    1854:	eb db                	jmp    1831 <phase_6+0xa4>
    1856:	48 8b 5c 24 20       	mov    0x20(%rsp),%rbx
    185b:	48 8b 44 24 28       	mov    0x28(%rsp),%rax
    1860:	48 89 43 08          	mov    %rax,0x8(%rbx)
    1864:	48 8b 54 24 30       	mov    0x30(%rsp),%rdx
    1869:	48 89 50 08          	mov    %rdx,0x8(%rax)
    186d:	48 8b 44 24 38       	mov    0x38(%rsp),%rax
    1872:	48 89 42 08          	mov    %rax,0x8(%rdx)
    1876:	48 8b 54 24 40       	mov    0x40(%rsp),%rdx
    187b:	48 89 50 08          	mov    %rdx,0x8(%rax)
    187f:	48 8b 44 24 48       	mov    0x48(%rsp),%rax
    1884:	48 89 42 08          	mov    %rax,0x8(%rdx)
    1888:	48 c7 40 08 00 00 00 	movq   $0x0,0x8(%rax)
    188f:	00 
    1890:	bd 05 00 00 00       	mov    $0x5,%ebp
    1895:	eb 09                	jmp    18a0 <phase_6+0x113>
    1897:	48 8b 5b 08          	mov    0x8(%rbx),%rbx
    189b:	83 ed 01             	sub    $0x1,%ebp
    189e:	74 11                	je     18b1 <phase_6+0x124>
    18a0:	48 8b 43 08          	mov    0x8(%rbx),%rax
    18a4:	8b 00                	mov    (%rax),%eax
    18a6:	39 03                	cmp    %eax,(%rbx)
    18a8:	7d ed                	jge    1897 <phase_6+0x10a>
    18aa:	e8 5e 04 00 00       	callq  1d0d <explode_bomb>
    18af:	eb e6                	jmp    1897 <phase_6+0x10a>
    18b1:	48 8b 44 24 58       	mov    0x58(%rsp),%rax
    18b6:	64 48 33 04 25 28 00 	xor    %fs:0x28,%rax
    18bd:	00 00 
    18bf:	75 0d                	jne    18ce <phase_6+0x141>
    18c1:	48 83 c4 60          	add    $0x60,%rsp
    18c5:	5b                   	pop    %rbx
    18c6:	5d                   	pop    %rbp
    18c7:	41 5c                	pop    %r12
    18c9:	41 5d                	pop    %r13
    18cb:	41 5e                	pop    %r14
    18cd:	c3                   	retq   
    18ce:	e8 ad f7 ff ff       	callq  1080 <__stack_chk_fail@plt>

00000000000018d3 <fun7>:
    18d3:	48 85 ff             	test   %rdi,%rdi
    18d6:	74 34                	je     190c <fun7+0x39>
    18d8:	48 83 ec 08          	sub    $0x8,%rsp
    18dc:	8b 17                	mov    (%rdi),%edx
    18de:	39 f2                	cmp    %esi,%edx
    18e0:	7f 0e                	jg     18f0 <fun7+0x1d>
    18e2:	b8 00 00 00 00       	mov    $0x0,%eax
    18e7:	39 f2                	cmp    %esi,%edx
    18e9:	75 12                	jne    18fd <fun7+0x2a>
    18eb:	48 83 c4 08          	add    $0x8,%rsp
    18ef:	c3                   	retq   
    18f0:	48 8b 7f 08          	mov    0x8(%rdi),%rdi
    18f4:	e8 da ff ff ff       	callq  18d3 <fun7>
    18f9:	01 c0                	add    %eax,%eax
    18fb:	eb ee                	jmp    18eb <fun7+0x18>
    18fd:	48 8b 7f 10          	mov    0x10(%rdi),%rdi
    1901:	e8 cd ff ff ff       	callq  18d3 <fun7>
    1906:	8d 44 00 01          	lea    0x1(%rax,%rax,1),%eax
    190a:	eb df                	jmp    18eb <fun7+0x18>
    190c:	b8 ff ff ff ff       	mov    $0xffffffff,%eax
    1911:	c3                   	retq   

0000000000001912 <secret_phase>:
    1912:	53                   	push   %rbx
    1913:	e8 72 04 00 00       	callq  1d8a <read_line>
    1918:	ba 0a 00 00 00       	mov    $0xa,%edx
    191d:	be 00 00 00 00       	mov    $0x0,%esi
    1922:	48 89 c7             	mov    %rax,%rdi
    1925:	e8 d6 f7 ff ff       	callq  1100 <strtol@plt>
    192a:	48 89 c3             	mov    %rax,%rbx
    192d:	8d 40 ff             	lea    -0x1(%rax),%eax
    1930:	3d e8 03 00 00       	cmp    $0x3e8,%eax
    1935:	77 2b                	ja     1962 <secret_phase+0x50>
    1937:	89 de                	mov    %ebx,%esi
    1939:	48 8d 3d 00 28 20 00 	lea    0x202800(%rip),%rdi        # 204140 <n1>
    1940:	e8 8e ff ff ff       	callq  18d3 <fun7>
    1945:	83 f8 04             	cmp    $0x4,%eax
    1948:	74 05                	je     194f <secret_phase+0x3d>
    194a:	e8 be 03 00 00       	callq  1d0d <explode_bomb>
    194f:	48 8d 3d 32 14 00 00 	lea    0x1432(%rip),%rdi        # 2d88 <_IO_stdin_used+0x188>
    1956:	e8 05 f7 ff ff       	callq  1060 <puts@plt>
    195b:	e8 6e 05 00 00       	callq  1ece <phase_defused>
    1960:	5b                   	pop    %rbx
    1961:	c3                   	retq   
    1962:	e8 a6 03 00 00       	callq  1d0d <explode_bomb>
    1967:	eb ce                	jmp    1937 <secret_phase+0x25>

0000000000001969 <sig_handler>:
    1969:	48 83 ec 08          	sub    $0x8,%rsp
    196d:	48 8d 3d ac 14 00 00 	lea    0x14ac(%rip),%rdi        # 2e20 <array.3418+0x40>
    1974:	e8 e7 f6 ff ff       	callq  1060 <puts@plt>
    1979:	bf 03 00 00 00       	mov    $0x3,%edi
    197e:	e8 0d f8 ff ff       	callq  1190 <sleep@plt>
    1983:	48 8d 35 5f 16 00 00 	lea    0x165f(%rip),%rsi        # 2fe9 <array.3418+0x209>
    198a:	bf 01 00 00 00       	mov    $0x1,%edi
    198f:	b8 00 00 00 00       	mov    $0x0,%eax
    1994:	e8 97 f7 ff ff       	callq  1130 <__printf_chk@plt>
    1999:	48 8b 3d e0 2c 20 00 	mov    0x202ce0(%rip),%rdi        # 204680 <stdout@@GLIBC_2.2.5>
    19a0:	e8 6b f7 ff ff       	callq  1110 <fflush@plt>
    19a5:	bf 01 00 00 00       	mov    $0x1,%edi
    19aa:	e8 e1 f7 ff ff       	callq  1190 <sleep@plt>
    19af:	48 8d 3d 3b 16 00 00 	lea    0x163b(%rip),%rdi        # 2ff1 <array.3418+0x211>
    19b6:	e8 a5 f6 ff ff       	callq  1060 <puts@plt>
    19bb:	bf 10 00 00 00       	mov    $0x10,%edi
    19c0:	e8 9b f7 ff ff       	callq  1160 <exit@plt>

00000000000019c5 <invalid_phase>:
    19c5:	48 83 ec 08          	sub    $0x8,%rsp
    19c9:	48 89 fa             	mov    %rdi,%rdx
    19cc:	48 8d 35 26 16 00 00 	lea    0x1626(%rip),%rsi        # 2ff9 <array.3418+0x219>
    19d3:	bf 01 00 00 00       	mov    $0x1,%edi
    19d8:	b8 00 00 00 00       	mov    $0x0,%eax
    19dd:	e8 4e f7 ff ff       	callq  1130 <__printf_chk@plt>
    19e2:	bf 08 00 00 00       	mov    $0x8,%edi
    19e7:	e8 74 f7 ff ff       	callq  1160 <exit@plt>

00000000000019ec <string_length>:
    19ec:	80 3f 00             	cmpb   $0x0,(%rdi)
    19ef:	74 12                	je     1a03 <string_length+0x17>
    19f1:	48 89 fa             	mov    %rdi,%rdx
    19f4:	48 83 c2 01          	add    $0x1,%rdx
    19f8:	89 d0                	mov    %edx,%eax
    19fa:	29 f8                	sub    %edi,%eax
    19fc:	80 3a 00             	cmpb   $0x0,(%rdx)
    19ff:	75 f3                	jne    19f4 <string_length+0x8>
    1a01:	f3 c3                	repz retq 
    1a03:	b8 00 00 00 00       	mov    $0x0,%eax
    1a08:	c3                   	retq   

0000000000001a09 <strings_not_equal>:
    1a09:	41 54                	push   %r12
    1a0b:	55                   	push   %rbp
    1a0c:	53                   	push   %rbx
    1a0d:	48 89 fb             	mov    %rdi,%rbx
    1a10:	48 89 f5             	mov    %rsi,%rbp
    1a13:	e8 d4 ff ff ff       	callq  19ec <string_length>
    1a18:	41 89 c4             	mov    %eax,%r12d
    1a1b:	48 89 ef             	mov    %rbp,%rdi
    1a1e:	e8 c9 ff ff ff       	callq  19ec <string_length>
    1a23:	ba 01 00 00 00       	mov    $0x1,%edx
    1a28:	41 39 c4             	cmp    %eax,%r12d
    1a2b:	74 07                	je     1a34 <strings_not_equal+0x2b>
    1a2d:	89 d0                	mov    %edx,%eax
    1a2f:	5b                   	pop    %rbx
    1a30:	5d                   	pop    %rbp
    1a31:	41 5c                	pop    %r12
    1a33:	c3                   	retq   
    1a34:	0f b6 03             	movzbl (%rbx),%eax
    1a37:	84 c0                	test   %al,%al
    1a39:	74 27                	je     1a62 <strings_not_equal+0x59>
    1a3b:	3a 45 00             	cmp    0x0(%rbp),%al
    1a3e:	75 29                	jne    1a69 <strings_not_equal+0x60>
    1a40:	48 83 c3 01          	add    $0x1,%rbx
    1a44:	48 83 c5 01          	add    $0x1,%rbp
    1a48:	0f b6 03             	movzbl (%rbx),%eax
    1a4b:	84 c0                	test   %al,%al
    1a4d:	74 0c                	je     1a5b <strings_not_equal+0x52>
    1a4f:	38 45 00             	cmp    %al,0x0(%rbp)
    1a52:	74 ec                	je     1a40 <strings_not_equal+0x37>
    1a54:	ba 01 00 00 00       	mov    $0x1,%edx
    1a59:	eb d2                	jmp    1a2d <strings_not_equal+0x24>
    1a5b:	ba 00 00 00 00       	mov    $0x0,%edx
    1a60:	eb cb                	jmp    1a2d <strings_not_equal+0x24>
    1a62:	ba 00 00 00 00       	mov    $0x0,%edx
    1a67:	eb c4                	jmp    1a2d <strings_not_equal+0x24>
    1a69:	ba 01 00 00 00       	mov    $0x1,%edx
    1a6e:	eb bd                	jmp    1a2d <strings_not_equal+0x24>

0000000000001a70 <initialize_bomb>:
    1a70:	55                   	push   %rbp
    1a71:	53                   	push   %rbx
    1a72:	48 81 ec 58 20 00 00 	sub    $0x2058,%rsp
    1a79:	64 48 8b 04 25 28 00 	mov    %fs:0x28,%rax
    1a80:	00 00 
    1a82:	48 89 84 24 48 20 00 	mov    %rax,0x2048(%rsp)
    1a89:	00 
    1a8a:	31 c0                	xor    %eax,%eax
    1a8c:	48 8d 35 d6 fe ff ff 	lea    -0x12a(%rip),%rsi        # 1969 <sig_handler>
    1a93:	bf 02 00 00 00       	mov    $0x2,%edi
    1a98:	e8 33 f6 ff ff       	callq  10d0 <signal@plt>
    1a9d:	48 89 e7             	mov    %rsp,%rdi
    1aa0:	be 40 00 00 00       	mov    $0x40,%esi
    1aa5:	e8 a6 f6 ff ff       	callq  1150 <gethostname@plt>
    1aaa:	85 c0                	test   %eax,%eax
    1aac:	75 45                	jne    1af3 <initialize_bomb+0x83>
    1aae:	48 8b 3d cb 27 20 00 	mov    0x2027cb(%rip),%rdi        # 204280 <host_table>
    1ab5:	48 8d 1d cc 27 20 00 	lea    0x2027cc(%rip),%rbx        # 204288 <host_table+0x8>
    1abc:	48 89 e5             	mov    %rsp,%rbp
    1abf:	48 85 ff             	test   %rdi,%rdi
    1ac2:	74 19                	je     1add <initialize_bomb+0x6d>
    1ac4:	48 89 ee             	mov    %rbp,%rsi
    1ac7:	e8 64 f5 ff ff       	callq  1030 <strcasecmp@plt>
    1acc:	85 c0                	test   %eax,%eax
    1ace:	74 5e                	je     1b2e <initialize_bomb+0xbe>
    1ad0:	48 83 c3 08          	add    $0x8,%rbx
    1ad4:	48 8b 7b f8          	mov    -0x8(%rbx),%rdi
    1ad8:	48 85 ff             	test   %rdi,%rdi
    1adb:	75 e7                	jne    1ac4 <initialize_bomb+0x54>
    1add:	48 8d 3d ac 13 00 00 	lea    0x13ac(%rip),%rdi        # 2e90 <array.3418+0xb0>
    1ae4:	e8 77 f5 ff ff       	callq  1060 <puts@plt>
    1ae9:	bf 08 00 00 00       	mov    $0x8,%edi
    1aee:	e8 6d f6 ff ff       	callq  1160 <exit@plt>
    1af3:	48 8d 3d 5e 13 00 00 	lea    0x135e(%rip),%rdi        # 2e58 <array.3418+0x78>
    1afa:	e8 61 f5 ff ff       	callq  1060 <puts@plt>
    1aff:	bf 08 00 00 00       	mov    $0x8,%edi
    1b04:	e8 57 f6 ff ff       	callq  1160 <exit@plt>
    1b09:	48 8d 54 24 40       	lea    0x40(%rsp),%rdx
    1b0e:	48 8d 35 f5 14 00 00 	lea    0x14f5(%rip),%rsi        # 300a <array.3418+0x22a>
    1b15:	bf 01 00 00 00       	mov    $0x1,%edi
    1b1a:	b8 00 00 00 00       	mov    $0x0,%eax
    1b1f:	e8 0c f6 ff ff       	callq  1130 <__printf_chk@plt>
    1b24:	bf 08 00 00 00       	mov    $0x8,%edi
    1b29:	e8 32 f6 ff ff       	callq  1160 <exit@plt>
    1b2e:	48 8d 7c 24 40       	lea    0x40(%rsp),%rdi
    1b33:	e8 b2 0d 00 00       	callq  28ea <init_driver>
    1b38:	85 c0                	test   %eax,%eax
    1b3a:	78 cd                	js     1b09 <initialize_bomb+0x99>
    1b3c:	48 8b 84 24 48 20 00 	mov    0x2048(%rsp),%rax
    1b43:	00 
    1b44:	64 48 33 04 25 28 00 	xor    %fs:0x28,%rax
    1b4b:	00 00 
    1b4d:	75 0a                	jne    1b59 <initialize_bomb+0xe9>
    1b4f:	48 81 c4 58 20 00 00 	add    $0x2058,%rsp
    1b56:	5b                   	pop    %rbx
    1b57:	5d                   	pop    %rbp
    1b58:	c3                   	retq   
    1b59:	e8 22 f5 ff ff       	callq  1080 <__stack_chk_fail@plt>

0000000000001b5e <initialize_bomb_solve>:
    1b5e:	f3 c3                	repz retq 

0000000000001b60 <blank_line>:
    1b60:	55                   	push   %rbp
    1b61:	53                   	push   %rbx
    1b62:	48 83 ec 08          	sub    $0x8,%rsp
    1b66:	48 89 fd             	mov    %rdi,%rbp
    1b69:	0f b6 5d 00          	movzbl 0x0(%rbp),%ebx
    1b6d:	84 db                	test   %bl,%bl
    1b6f:	74 1e                	je     1b8f <blank_line+0x2f>
    1b71:	e8 2a f6 ff ff       	callq  11a0 <__ctype_b_loc@plt>
    1b76:	48 83 c5 01          	add    $0x1,%rbp
    1b7a:	48 0f be db          	movsbq %bl,%rbx
    1b7e:	48 8b 00             	mov    (%rax),%rax
    1b81:	f6 44 58 01 20       	testb  $0x20,0x1(%rax,%rbx,2)
    1b86:	75 e1                	jne    1b69 <blank_line+0x9>
    1b88:	b8 00 00 00 00       	mov    $0x0,%eax
    1b8d:	eb 05                	jmp    1b94 <blank_line+0x34>
    1b8f:	b8 01 00 00 00       	mov    $0x1,%eax
    1b94:	48 83 c4 08          	add    $0x8,%rsp
    1b98:	5b                   	pop    %rbx
    1b99:	5d                   	pop    %rbp
    1b9a:	c3                   	retq   

0000000000001b9b <skip>:
    1b9b:	55                   	push   %rbp
    1b9c:	53                   	push   %rbx
    1b9d:	48 83 ec 08          	sub    $0x8,%rsp
    1ba1:	48 8d 2d 18 2b 20 00 	lea    0x202b18(%rip),%rbp        # 2046c0 <input_strings>
    1ba8:	48 63 05 fd 2a 20 00 	movslq 0x202afd(%rip),%rax        # 2046ac <num_input_strings>
    1baf:	48 8d 3c 80          	lea    (%rax,%rax,4),%rdi
    1bb3:	48 c1 e7 04          	shl    $0x4,%rdi
    1bb7:	48 01 ef             	add    %rbp,%rdi
    1bba:	48 8b 15 ef 2a 20 00 	mov    0x202aef(%rip),%rdx        # 2046b0 <infile>
    1bc1:	be 50 00 00 00       	mov    $0x50,%esi
    1bc6:	e8 f5 f4 ff ff       	callq  10c0 <fgets@plt>
    1bcb:	48 89 c3             	mov    %rax,%rbx
    1bce:	48 85 c0             	test   %rax,%rax
    1bd1:	74 0c                	je     1bdf <skip+0x44>
    1bd3:	48 89 c7             	mov    %rax,%rdi
    1bd6:	e8 85 ff ff ff       	callq  1b60 <blank_line>
    1bdb:	85 c0                	test   %eax,%eax
    1bdd:	75 c9                	jne    1ba8 <skip+0xd>
    1bdf:	48 89 d8             	mov    %rbx,%rax
    1be2:	48 83 c4 08          	add    $0x8,%rsp
    1be6:	5b                   	pop    %rbx
    1be7:	5d                   	pop    %rbp
    1be8:	c3                   	retq   

0000000000001be9 <send_msg>:
    1be9:	53                   	push   %rbx
    1bea:	48 81 ec 10 40 00 00 	sub    $0x4010,%rsp
    1bf1:	41 89 f8             	mov    %edi,%r8d
    1bf4:	64 48 8b 04 25 28 00 	mov    %fs:0x28,%rax
    1bfb:	00 00 
    1bfd:	48 89 84 24 08 40 00 	mov    %rax,0x4008(%rsp)
    1c04:	00 
    1c05:	31 c0                	xor    %eax,%eax
    1c07:	8b 35 9f 2a 20 00    	mov    0x202a9f(%rip),%esi        # 2046ac <num_input_strings>
    1c0d:	8d 46 ff             	lea    -0x1(%rsi),%eax
    1c10:	48 98                	cltq   
    1c12:	48 8d 14 80          	lea    (%rax,%rax,4),%rdx
    1c16:	48 c1 e2 04          	shl    $0x4,%rdx
    1c1a:	48 8d 05 9f 2a 20 00 	lea    0x202a9f(%rip),%rax        # 2046c0 <input_strings>
    1c21:	48 01 c2             	add    %rax,%rdx
    1c24:	48 c7 c1 ff ff ff ff 	mov    $0xffffffffffffffff,%rcx
    1c2b:	b8 00 00 00 00       	mov    $0x0,%eax
    1c30:	48 89 d7             	mov    %rdx,%rdi
    1c33:	f2 ae                	repnz scas %es:(%rdi),%al
    1c35:	48 89 c8             	mov    %rcx,%rax
    1c38:	48 f7 d0             	not    %rax
    1c3b:	48 83 c0 63          	add    $0x63,%rax
    1c3f:	48 3d 00 20 00 00    	cmp    $0x2000,%rax
    1c45:	0f 87 86 00 00 00    	ja     1cd1 <send_msg+0xe8>
    1c4b:	45 85 c0             	test   %r8d,%r8d
    1c4e:	4c 8d 0d cf 13 00 00 	lea    0x13cf(%rip),%r9        # 3024 <array.3418+0x244>
    1c55:	48 8d 05 d0 13 00 00 	lea    0x13d0(%rip),%rax        # 302c <array.3418+0x24c>
    1c5c:	4c 0f 44 c8          	cmove  %rax,%r9
    1c60:	48 89 e3             	mov    %rsp,%rbx
    1c63:	52                   	push   %rdx
    1c64:	56                   	push   %rsi
    1c65:	44 8b 05 d0 24 20 00 	mov    0x2024d0(%rip),%r8d        # 20413c <bomb_id>
    1c6c:	48 8d 0d c2 13 00 00 	lea    0x13c2(%rip),%rcx        # 3035 <array.3418+0x255>
    1c73:	ba 00 20 00 00       	mov    $0x2000,%edx
    1c78:	be 01 00 00 00       	mov    $0x1,%esi
    1c7d:	48 89 df             	mov    %rbx,%rdi
    1c80:	b8 00 00 00 00       	mov    $0x0,%eax
    1c85:	e8 26 f5 ff ff       	callq  11b0 <__sprintf_chk@plt>
    1c8a:	4c 8d 84 24 10 20 00 	lea    0x2010(%rsp),%r8
    1c91:	00 
    1c92:	b9 00 00 00 00       	mov    $0x0,%ecx
    1c97:	48 89 da             	mov    %rbx,%rdx
    1c9a:	48 8d 35 7f 24 20 00 	lea    0x20247f(%rip),%rsi        # 204120 <user_password>
    1ca1:	48 8d 3d 8d 24 20 00 	lea    0x20248d(%rip),%rdi        # 204135 <userid>
    1ca8:	e8 46 0e 00 00       	callq  2af3 <driver_post>
    1cad:	48 83 c4 10          	add    $0x10,%rsp
    1cb1:	85 c0                	test   %eax,%eax
    1cb3:	78 3c                	js     1cf1 <send_msg+0x108>
    1cb5:	48 8b 84 24 08 40 00 	mov    0x4008(%rsp),%rax
    1cbc:	00 
    1cbd:	64 48 33 04 25 28 00 	xor    %fs:0x28,%rax
    1cc4:	00 00 
    1cc6:	75 40                	jne    1d08 <send_msg+0x11f>
    1cc8:	48 81 c4 10 40 00 00 	add    $0x4010,%rsp
    1ccf:	5b                   	pop    %rbx
    1cd0:	c3                   	retq   
    1cd1:	48 8d 35 f0 11 00 00 	lea    0x11f0(%rip),%rsi        # 2ec8 <array.3418+0xe8>
    1cd8:	bf 01 00 00 00       	mov    $0x1,%edi
    1cdd:	b8 00 00 00 00       	mov    $0x0,%eax
    1ce2:	e8 49 f4 ff ff       	callq  1130 <__printf_chk@plt>
    1ce7:	bf 08 00 00 00       	mov    $0x8,%edi
    1cec:	e8 6f f4 ff ff       	callq  1160 <exit@plt>
    1cf1:	48 8d bc 24 00 20 00 	lea    0x2000(%rsp),%rdi
    1cf8:	00 
    1cf9:	e8 62 f3 ff ff       	callq  1060 <puts@plt>
    1cfe:	bf 00 00 00 00       	mov    $0x0,%edi
    1d03:	e8 58 f4 ff ff       	callq  1160 <exit@plt>
    1d08:	e8 73 f3 ff ff       	callq  1080 <__stack_chk_fail@plt>

0000000000001d0d <explode_bomb>:
    1d0d:	48 83 ec 08          	sub    $0x8,%rsp
    1d11:	48 8d 3d 29 13 00 00 	lea    0x1329(%rip),%rdi        # 3041 <array.3418+0x261>
    1d18:	e8 43 f3 ff ff       	callq  1060 <puts@plt>
    1d1d:	48 8d 3d 26 13 00 00 	lea    0x1326(%rip),%rdi        # 304a <array.3418+0x26a>
    1d24:	e8 37 f3 ff ff       	callq  1060 <puts@plt>
    1d29:	bf 00 00 00 00       	mov    $0x0,%edi
    1d2e:	e8 b6 fe ff ff       	callq  1be9 <send_msg>
    1d33:	48 8d 3d b6 11 00 00 	lea    0x11b6(%rip),%rdi        # 2ef0 <array.3418+0x110>
    1d3a:	e8 21 f3 ff ff       	callq  1060 <puts@plt>
    1d3f:	bf 08 00 00 00       	mov    $0x8,%edi
    1d44:	e8 17 f4 ff ff       	callq  1160 <exit@plt>

0000000000001d49 <read_six_numbers>:
    1d49:	48 83 ec 08          	sub    $0x8,%rsp
    1d4d:	48 89 f2             	mov    %rsi,%rdx
    1d50:	48 8d 4e 04          	lea    0x4(%rsi),%rcx
    1d54:	48 8d 46 14          	lea    0x14(%rsi),%rax
    1d58:	50                   	push   %rax
    1d59:	48 8d 46 10          	lea    0x10(%rsi),%rax
    1d5d:	50                   	push   %rax
    1d5e:	4c 8d 4e 0c          	lea    0xc(%rsi),%r9
    1d62:	4c 8d 46 08          	lea    0x8(%rsi),%r8
    1d66:	48 8d 35 f4 12 00 00 	lea    0x12f4(%rip),%rsi        # 3061 <array.3418+0x281>
    1d6d:	b8 00 00 00 00       	mov    $0x0,%eax
    1d72:	e8 a9 f3 ff ff       	callq  1120 <__isoc99_sscanf@plt>
    1d77:	48 83 c4 10          	add    $0x10,%rsp
    1d7b:	83 f8 05             	cmp    $0x5,%eax
    1d7e:	7e 05                	jle    1d85 <read_six_numbers+0x3c>
    1d80:	48 83 c4 08          	add    $0x8,%rsp
    1d84:	c3                   	retq   
    1d85:	e8 83 ff ff ff       	callq  1d0d <explode_bomb>

0000000000001d8a <read_line>:
    1d8a:	48 83 ec 08          	sub    $0x8,%rsp
    1d8e:	b8 00 00 00 00       	mov    $0x0,%eax
    1d93:	e8 03 fe ff ff       	callq  1b9b <skip>
    1d98:	48 85 c0             	test   %rax,%rax
    1d9b:	74 6f                	je     1e0c <read_line+0x82>
    1d9d:	8b 35 09 29 20 00    	mov    0x202909(%rip),%esi        # 2046ac <num_input_strings>
    1da3:	48 63 c6             	movslq %esi,%rax
    1da6:	48 8d 14 80          	lea    (%rax,%rax,4),%rdx
    1daa:	48 c1 e2 04          	shl    $0x4,%rdx
    1dae:	48 8d 05 0b 29 20 00 	lea    0x20290b(%rip),%rax        # 2046c0 <input_strings>
    1db5:	48 01 c2             	add    %rax,%rdx
    1db8:	48 c7 c1 ff ff ff ff 	mov    $0xffffffffffffffff,%rcx
    1dbf:	b8 00 00 00 00       	mov    $0x0,%eax
    1dc4:	48 89 d7             	mov    %rdx,%rdi
    1dc7:	f2 ae                	repnz scas %es:(%rdi),%al
    1dc9:	48 f7 d1             	not    %rcx
    1dcc:	48 83 e9 01          	sub    $0x1,%rcx
    1dd0:	83 f9 4e             	cmp    $0x4e,%ecx
    1dd3:	0f 8f ab 00 00 00    	jg     1e84 <read_line+0xfa>
    1dd9:	83 e9 01             	sub    $0x1,%ecx
    1ddc:	48 63 c9             	movslq %ecx,%rcx
    1ddf:	48 63 c6             	movslq %esi,%rax
    1de2:	48 8d 04 80          	lea    (%rax,%rax,4),%rax
    1de6:	48 c1 e0 04          	shl    $0x4,%rax
    1dea:	48 89 c7             	mov    %rax,%rdi
    1ded:	48 8d 05 cc 28 20 00 	lea    0x2028cc(%rip),%rax        # 2046c0 <input_strings>
    1df4:	48 01 f8             	add    %rdi,%rax
    1df7:	c6 04 08 00          	movb   $0x0,(%rax,%rcx,1)
    1dfb:	83 c6 01             	add    $0x1,%esi
    1dfe:	89 35 a8 28 20 00    	mov    %esi,0x2028a8(%rip)        # 2046ac <num_input_strings>
    1e04:	48 89 d0             	mov    %rdx,%rax
    1e07:	48 83 c4 08          	add    $0x8,%rsp
    1e0b:	c3                   	retq   
    1e0c:	48 8b 05 7d 28 20 00 	mov    0x20287d(%rip),%rax        # 204690 <stdin@@GLIBC_2.2.5>
    1e13:	48 39 05 96 28 20 00 	cmp    %rax,0x202896(%rip)        # 2046b0 <infile>
    1e1a:	74 1b                	je     1e37 <read_line+0xad>
    1e1c:	48 8d 3d 6e 12 00 00 	lea    0x126e(%rip),%rdi        # 3091 <array.3418+0x2b1>
    1e23:	e8 f8 f1 ff ff       	callq  1020 <getenv@plt>
    1e28:	48 85 c0             	test   %rax,%rax
    1e2b:	74 20                	je     1e4d <read_line+0xc3>
    1e2d:	bf 00 00 00 00       	mov    $0x0,%edi
    1e32:	e8 29 f3 ff ff       	callq  1160 <exit@plt>
    1e37:	48 8d 3d 35 12 00 00 	lea    0x1235(%rip),%rdi        # 3073 <array.3418+0x293>
    1e3e:	e8 1d f2 ff ff       	callq  1060 <puts@plt>
    1e43:	bf 08 00 00 00       	mov    $0x8,%edi
    1e48:	e8 13 f3 ff ff       	callq  1160 <exit@plt>
    1e4d:	48 8b 05 3c 28 20 00 	mov    0x20283c(%rip),%rax        # 204690 <stdin@@GLIBC_2.2.5>
    1e54:	48 89 05 55 28 20 00 	mov    %rax,0x202855(%rip)        # 2046b0 <infile>
    1e5b:	b8 00 00 00 00       	mov    $0x0,%eax
    1e60:	e8 36 fd ff ff       	callq  1b9b <skip>
    1e65:	48 85 c0             	test   %rax,%rax
    1e68:	0f 85 2f ff ff ff    	jne    1d9d <read_line+0x13>
    1e6e:	48 8d 3d fe 11 00 00 	lea    0x11fe(%rip),%rdi        # 3073 <array.3418+0x293>
    1e75:	e8 e6 f1 ff ff       	callq  1060 <puts@plt>
    1e7a:	bf 00 00 00 00       	mov    $0x0,%edi
    1e7f:	e8 dc f2 ff ff       	callq  1160 <exit@plt>
    1e84:	48 8d 3d 11 12 00 00 	lea    0x1211(%rip),%rdi        # 309c <array.3418+0x2bc>
    1e8b:	e8 d0 f1 ff ff       	callq  1060 <puts@plt>
    1e90:	8b 05 16 28 20 00    	mov    0x202816(%rip),%eax        # 2046ac <num_input_strings>
    1e96:	8d 50 01             	lea    0x1(%rax),%edx
    1e99:	89 15 0d 28 20 00    	mov    %edx,0x20280d(%rip)        # 2046ac <num_input_strings>
    1e9f:	48 98                	cltq   
    1ea1:	48 6b c0 50          	imul   $0x50,%rax,%rax
    1ea5:	48 8d 15 14 28 20 00 	lea    0x202814(%rip),%rdx        # 2046c0 <input_strings>
    1eac:	48 be 2a 2a 2a 74 72 	movabs $0x636e7572742a2a2a,%rsi
    1eb3:	75 6e 63 
    1eb6:	48 bf 61 74 65 64 2a 	movabs $0x2a2a2a64657461,%rdi
    1ebd:	2a 2a 00 
    1ec0:	48 89 34 02          	mov    %rsi,(%rdx,%rax,1)
    1ec4:	48 89 7c 02 08       	mov    %rdi,0x8(%rdx,%rax,1)
    1ec9:	e8 3f fe ff ff       	callq  1d0d <explode_bomb>

0000000000001ece <phase_defused>:
    1ece:	48 83 ec 78          	sub    $0x78,%rsp
    1ed2:	64 48 8b 04 25 28 00 	mov    %fs:0x28,%rax
    1ed9:	00 00 
    1edb:	48 89 44 24 68       	mov    %rax,0x68(%rsp)
    1ee0:	31 c0                	xor    %eax,%eax
    1ee2:	bf 01 00 00 00       	mov    $0x1,%edi
    1ee7:	e8 fd fc ff ff       	callq  1be9 <send_msg>
    1eec:	83 3d b9 27 20 00 06 	cmpl   $0x6,0x2027b9(%rip)        # 2046ac <num_input_strings>
    1ef3:	74 19                	je     1f0e <phase_defused+0x40>
    1ef5:	48 8b 44 24 68       	mov    0x68(%rsp),%rax
    1efa:	64 48 33 04 25 28 00 	xor    %fs:0x28,%rax
    1f01:	00 00 
    1f03:	0f 85 84 00 00 00    	jne    1f8d <phase_defused+0xbf>
    1f09:	48 83 c4 78          	add    $0x78,%rsp
    1f0d:	c3                   	retq   
    1f0e:	48 8d 4c 24 0c       	lea    0xc(%rsp),%rcx
    1f13:	48 8d 54 24 08       	lea    0x8(%rsp),%rdx
    1f18:	4c 8d 44 24 10       	lea    0x10(%rsp),%r8
    1f1d:	48 8d 35 93 11 00 00 	lea    0x1193(%rip),%rsi        # 30b7 <array.3418+0x2d7>
    1f24:	48 8d 3d 85 28 20 00 	lea    0x202885(%rip),%rdi        # 2047b0 <input_strings+0xf0>
    1f2b:	b8 00 00 00 00       	mov    $0x0,%eax
    1f30:	e8 eb f1 ff ff       	callq  1120 <__isoc99_sscanf@plt>
    1f35:	83 f8 03             	cmp    $0x3,%eax
    1f38:	74 1a                	je     1f54 <phase_defused+0x86>
    1f3a:	48 8d 3d 37 10 00 00 	lea    0x1037(%rip),%rdi        # 2f78 <array.3418+0x198>
    1f41:	e8 1a f1 ff ff       	callq  1060 <puts@plt>
    1f46:	48 8d 3d 5b 10 00 00 	lea    0x105b(%rip),%rdi        # 2fa8 <array.3418+0x1c8>
    1f4d:	e8 0e f1 ff ff       	callq  1060 <puts@plt>
    1f52:	eb a1                	jmp    1ef5 <phase_defused+0x27>
    1f54:	48 8d 7c 24 10       	lea    0x10(%rsp),%rdi
    1f59:	48 8d 35 60 11 00 00 	lea    0x1160(%rip),%rsi        # 30c0 <array.3418+0x2e0>
    1f60:	e8 a4 fa ff ff       	callq  1a09 <strings_not_equal>
    1f65:	85 c0                	test   %eax,%eax
    1f67:	75 d1                	jne    1f3a <phase_defused+0x6c>
    1f69:	48 8d 3d a8 0f 00 00 	lea    0xfa8(%rip),%rdi        # 2f18 <array.3418+0x138>
    1f70:	e8 eb f0 ff ff       	callq  1060 <puts@plt>
    1f75:	48 8d 3d c4 0f 00 00 	lea    0xfc4(%rip),%rdi        # 2f40 <array.3418+0x160>
    1f7c:	e8 df f0 ff ff       	callq  1060 <puts@plt>
    1f81:	b8 00 00 00 00       	mov    $0x0,%eax
    1f86:	e8 87 f9 ff ff       	callq  1912 <secret_phase>
    1f8b:	eb ad                	jmp    1f3a <phase_defused+0x6c>
    1f8d:	e8 ee f0 ff ff       	callq  1080 <__stack_chk_fail@plt>

0000000000001f92 <sigalrm_handler>:
    1f92:	48 83 ec 08          	sub    $0x8,%rsp
    1f96:	b9 00 00 00 00       	mov    $0x0,%ecx
    1f9b:	48 8d 15 9e 12 00 00 	lea    0x129e(%rip),%rdx        # 3240 <array.3418+0x460>
    1fa2:	be 01 00 00 00       	mov    $0x1,%esi
    1fa7:	48 8b 3d f2 26 20 00 	mov    0x2026f2(%rip),%rdi        # 2046a0 <stderr@@GLIBC_2.2.5>
    1fae:	b8 00 00 00 00       	mov    $0x0,%eax
    1fb3:	e8 c8 f1 ff ff       	callq  1180 <__fprintf_chk@plt>
    1fb8:	bf 01 00 00 00       	mov    $0x1,%edi
    1fbd:	e8 9e f1 ff ff       	callq  1160 <exit@plt>

0000000000001fc2 <rio_readlineb>:
    1fc2:	41 56                	push   %r14
    1fc4:	41 55                	push   %r13
    1fc6:	41 54                	push   %r12
    1fc8:	55                   	push   %rbp
    1fc9:	53                   	push   %rbx
    1fca:	48 89 fb             	mov    %rdi,%rbx
    1fcd:	49 89 f4             	mov    %rsi,%r12
    1fd0:	49 89 d6             	mov    %rdx,%r14
    1fd3:	41 bd 01 00 00 00    	mov    $0x1,%r13d
    1fd9:	48 8d 6f 10          	lea    0x10(%rdi),%rbp
    1fdd:	48 83 fa 01          	cmp    $0x1,%rdx
    1fe1:	77 0c                	ja     1fef <rio_readlineb+0x2d>
    1fe3:	eb 60                	jmp    2045 <rio_readlineb+0x83>
    1fe5:	e8 56 f0 ff ff       	callq  1040 <__errno_location@plt>
    1fea:	83 38 04             	cmpl   $0x4,(%rax)
    1fed:	75 67                	jne    2056 <rio_readlineb+0x94>
    1fef:	8b 43 04             	mov    0x4(%rbx),%eax
    1ff2:	85 c0                	test   %eax,%eax
    1ff4:	7f 20                	jg     2016 <rio_readlineb+0x54>
    1ff6:	ba 00 20 00 00       	mov    $0x2000,%edx
    1ffb:	48 89 ee             	mov    %rbp,%rsi
    1ffe:	8b 3b                	mov    (%rbx),%edi
    2000:	e8 ab f0 ff ff       	callq  10b0 <read@plt>
    2005:	89 43 04             	mov    %eax,0x4(%rbx)
    2008:	85 c0                	test   %eax,%eax
    200a:	78 d9                	js     1fe5 <rio_readlineb+0x23>
    200c:	85 c0                	test   %eax,%eax
    200e:	74 4f                	je     205f <rio_readlineb+0x9d>
    2010:	48 89 6b 08          	mov    %rbp,0x8(%rbx)
    2014:	eb d9                	jmp    1fef <rio_readlineb+0x2d>
    2016:	48 8b 53 08          	mov    0x8(%rbx),%rdx
    201a:	0f b6 0a             	movzbl (%rdx),%ecx
    201d:	48 83 c2 01          	add    $0x1,%rdx
    2021:	48 89 53 08          	mov    %rdx,0x8(%rbx)
    2025:	83 e8 01             	sub    $0x1,%eax
    2028:	89 43 04             	mov    %eax,0x4(%rbx)
    202b:	49 83 c4 01          	add    $0x1,%r12
    202f:	41 88 4c 24 ff       	mov    %cl,-0x1(%r12)
    2034:	80 f9 0a             	cmp    $0xa,%cl
    2037:	74 0c                	je     2045 <rio_readlineb+0x83>
    2039:	41 83 c5 01          	add    $0x1,%r13d
    203d:	49 63 c5             	movslq %r13d,%rax
    2040:	4c 39 f0             	cmp    %r14,%rax
    2043:	72 aa                	jb     1fef <rio_readlineb+0x2d>
    2045:	41 c6 04 24 00       	movb   $0x0,(%r12)
    204a:	49 63 c5             	movslq %r13d,%rax
    204d:	5b                   	pop    %rbx
    204e:	5d                   	pop    %rbp
    204f:	41 5c                	pop    %r12
    2051:	41 5d                	pop    %r13
    2053:	41 5e                	pop    %r14
    2055:	c3                   	retq   
    2056:	48 c7 c0 ff ff ff ff 	mov    $0xffffffffffffffff,%rax
    205d:	eb 05                	jmp    2064 <rio_readlineb+0xa2>
    205f:	b8 00 00 00 00       	mov    $0x0,%eax
    2064:	85 c0                	test   %eax,%eax
    2066:	75 0d                	jne    2075 <rio_readlineb+0xb3>
    2068:	b8 00 00 00 00       	mov    $0x0,%eax
    206d:	41 83 fd 01          	cmp    $0x1,%r13d
    2071:	75 d2                	jne    2045 <rio_readlineb+0x83>
    2073:	eb d8                	jmp    204d <rio_readlineb+0x8b>
    2075:	48 c7 c0 ff ff ff ff 	mov    $0xffffffffffffffff,%rax
    207c:	eb cf                	jmp    204d <rio_readlineb+0x8b>

000000000000207e <submitr>:
    207e:	41 57                	push   %r15
    2080:	41 56                	push   %r14
    2082:	41 55                	push   %r13
    2084:	41 54                	push   %r12
    2086:	55                   	push   %rbp
    2087:	53                   	push   %rbx
    2088:	48 81 ec 78 a0 00 00 	sub    $0xa078,%rsp
    208f:	49 89 fd             	mov    %rdi,%r13
    2092:	89 f5                	mov    %esi,%ebp
    2094:	48 89 54 24 08       	mov    %rdx,0x8(%rsp)
    2099:	48 89 4c 24 10       	mov    %rcx,0x10(%rsp)
    209e:	4c 89 44 24 20       	mov    %r8,0x20(%rsp)
    20a3:	4c 89 4c 24 18       	mov    %r9,0x18(%rsp)
    20a8:	48 8b 9c 24 b0 a0 00 	mov    0xa0b0(%rsp),%rbx
    20af:	00 
    20b0:	4c 8b bc 24 b8 a0 00 	mov    0xa0b8(%rsp),%r15
    20b7:	00 
    20b8:	64 48 8b 04 25 28 00 	mov    %fs:0x28,%rax
    20bf:	00 00 
    20c1:	48 89 84 24 68 a0 00 	mov    %rax,0xa068(%rsp)
    20c8:	00 
    20c9:	31 c0                	xor    %eax,%eax
    20cb:	c7 44 24 3c 00 00 00 	movl   $0x0,0x3c(%rsp)
    20d2:	00 
    20d3:	ba 00 00 00 00       	mov    $0x0,%edx
    20d8:	be 01 00 00 00       	mov    $0x1,%esi
    20dd:	bf 02 00 00 00       	mov    $0x2,%edi
    20e2:	e8 d9 f0 ff ff       	callq  11c0 <socket@plt>
    20e7:	85 c0                	test   %eax,%eax
    20e9:	0f 88 35 01 00 00    	js     2224 <submitr+0x1a6>
    20ef:	41 89 c4             	mov    %eax,%r12d
    20f2:	4c 89 ef             	mov    %r13,%rdi
    20f5:	e8 e6 ef ff ff       	callq  10e0 <gethostbyname@plt>
    20fa:	48 85 c0             	test   %rax,%rax
    20fd:	0f 84 71 01 00 00    	je     2274 <submitr+0x1f6>
    2103:	4c 8d 6c 24 40       	lea    0x40(%rsp),%r13
    2108:	48 c7 44 24 42 00 00 	movq   $0x0,0x42(%rsp)
    210f:	00 00 
    2111:	c7 44 24 4a 00 00 00 	movl   $0x0,0x4a(%rsp)
    2118:	00 
    2119:	66 c7 44 24 4e 00 00 	movw   $0x0,0x4e(%rsp)
    2120:	66 c7 44 24 40 02 00 	movw   $0x2,0x40(%rsp)
    2127:	48 63 50 14          	movslq 0x14(%rax),%rdx
    212b:	48 8b 40 18          	mov    0x18(%rax),%rax
    212f:	48 8d 7c 24 44       	lea    0x44(%rsp),%rdi
    2134:	b9 0c 00 00 00       	mov    $0xc,%ecx
    2139:	48 8b 30             	mov    (%rax),%rsi
    213c:	e8 af ef ff ff       	callq  10f0 <__memmove_chk@plt>
    2141:	66 c1 cd 08          	ror    $0x8,%bp
    2145:	66 89 6c 24 42       	mov    %bp,0x42(%rsp)
    214a:	ba 10 00 00 00       	mov    $0x10,%edx
    214f:	4c 89 ee             	mov    %r13,%rsi
    2152:	44 89 e7             	mov    %r12d,%edi
    2155:	e8 16 f0 ff ff       	callq  1170 <connect@plt>
    215a:	85 c0                	test   %eax,%eax
    215c:	0f 88 7d 01 00 00    	js     22df <submitr+0x261>
    2162:	49 c7 c1 ff ff ff ff 	mov    $0xffffffffffffffff,%r9
    2169:	b8 00 00 00 00       	mov    $0x0,%eax
    216e:	4c 89 c9             	mov    %r9,%rcx
    2171:	48 89 df             	mov    %rbx,%rdi
    2174:	f2 ae                	repnz scas %es:(%rdi),%al
    2176:	48 89 ce             	mov    %rcx,%rsi
    2179:	48 f7 d6             	not    %rsi
    217c:	4c 89 c9             	mov    %r9,%rcx
    217f:	48 8b 7c 24 08       	mov    0x8(%rsp),%rdi
    2184:	f2 ae                	repnz scas %es:(%rdi),%al
    2186:	49 89 c8             	mov    %rcx,%r8
    2189:	4c 89 c9             	mov    %r9,%rcx
    218c:	48 8b 7c 24 10       	mov    0x10(%rsp),%rdi
    2191:	f2 ae                	repnz scas %es:(%rdi),%al
    2193:	48 89 ca             	mov    %rcx,%rdx
    2196:	48 f7 d2             	not    %rdx
    2199:	4c 89 c9             	mov    %r9,%rcx
    219c:	48 8b 7c 24 18       	mov    0x18(%rsp),%rdi
    21a1:	f2 ae                	repnz scas %es:(%rdi),%al
    21a3:	4c 29 c2             	sub    %r8,%rdx
    21a6:	48 29 ca             	sub    %rcx,%rdx
    21a9:	48 8d 44 76 fd       	lea    -0x3(%rsi,%rsi,2),%rax
    21ae:	48 8d 44 02 7b       	lea    0x7b(%rdx,%rax,1),%rax
    21b3:	48 3d 00 20 00 00    	cmp    $0x2000,%rax
    21b9:	0f 87 7d 01 00 00    	ja     233c <submitr+0x2be>
    21bf:	48 8d 94 24 60 40 00 	lea    0x4060(%rsp),%rdx
    21c6:	00 
    21c7:	b9 00 04 00 00       	mov    $0x400,%ecx
    21cc:	b8 00 00 00 00       	mov    $0x0,%eax
    21d1:	48 89 d7             	mov    %rdx,%rdi
    21d4:	f3 48 ab             	rep stos %rax,%es:(%rdi)
    21d7:	48 c7 c1 ff ff ff ff 	mov    $0xffffffffffffffff,%rcx
    21de:	48 89 df             	mov    %rbx,%rdi
    21e1:	f2 ae                	repnz scas %es:(%rdi),%al
    21e3:	48 89 ca             	mov    %rcx,%rdx
    21e6:	48 f7 d2             	not    %rdx
    21e9:	48 89 d1             	mov    %rdx,%rcx
    21ec:	48 83 e9 01          	sub    $0x1,%rcx
    21f0:	85 c9                	test   %ecx,%ecx
    21f2:	0f 84 3f 06 00 00    	je     2837 <submitr+0x7b9>
    21f8:	8d 41 ff             	lea    -0x1(%rcx),%eax
    21fb:	4c 8d 74 03 01       	lea    0x1(%rbx,%rax,1),%r14
    2200:	48 8d ac 24 60 40 00 	lea    0x4060(%rsp),%rbp
    2207:	00 
    2208:	48 8d 84 24 60 80 00 	lea    0x8060(%rsp),%rax
    220f:	00 
    2210:	48 89 44 24 28       	mov    %rax,0x28(%rsp)
    2215:	49 bd d9 ff 00 00 00 	movabs $0x2000000000ffd9,%r13
    221c:	00 20 00 
    221f:	e9 a6 01 00 00       	jmpq   23ca <submitr+0x34c>
    2224:	48 b8 45 72 72 6f 72 	movabs $0x43203a726f727245,%rax
    222b:	3a 20 43 
    222e:	48 ba 6c 69 65 6e 74 	movabs $0x6e7520746e65696c,%rdx
    2235:	20 75 6e 
    2238:	49 89 07             	mov    %rax,(%r15)
    223b:	49 89 57 08          	mov    %rdx,0x8(%r15)
    223f:	48 b8 61 62 6c 65 20 	movabs $0x206f7420656c6261,%rax
    2246:	74 6f 20 
    2249:	48 ba 63 72 65 61 74 	movabs $0x7320657461657263,%rdx
    2250:	65 20 73 
    2253:	49 89 47 10          	mov    %rax,0x10(%r15)
    2257:	49 89 57 18          	mov    %rdx,0x18(%r15)
    225b:	41 c7 47 20 6f 63 6b 	movl   $0x656b636f,0x20(%r15)
    2262:	65 
    2263:	66 41 c7 47 24 74 00 	movw   $0x74,0x24(%r15)
    226a:	b8 ff ff ff ff       	mov    $0xffffffff,%eax
    226f:	e9 9a 04 00 00       	jmpq   270e <submitr+0x690>
    2274:	48 b8 45 72 72 6f 72 	movabs $0x44203a726f727245,%rax
    227b:	3a 20 44 
    227e:	48 ba 4e 53 20 69 73 	movabs $0x6e7520736920534e,%rdx
    2285:	20 75 6e 
    2288:	49 89 07             	mov    %rax,(%r15)
    228b:	49 89 57 08          	mov    %rdx,0x8(%r15)
    228f:	48 b8 61 62 6c 65 20 	movabs $0x206f7420656c6261,%rax
    2296:	74 6f 20 
    2299:	48 ba 72 65 73 6f 6c 	movabs $0x2065766c6f736572,%rdx
    22a0:	76 65 20 
    22a3:	49 89 47 10          	mov    %rax,0x10(%r15)
    22a7:	49 89 57 18          	mov    %rdx,0x18(%r15)
    22ab:	48 b8 73 65 72 76 65 	movabs $0x6120726576726573,%rax
    22b2:	72 20 61 
    22b5:	49 89 47 20          	mov    %rax,0x20(%r15)
    22b9:	41 c7 47 28 64 64 72 	movl   $0x65726464,0x28(%r15)
    22c0:	65 
    22c1:	66 41 c7 47 2c 73 73 	movw   $0x7373,0x2c(%r15)
    22c8:	41 c6 47 2e 00       	movb   $0x0,0x2e(%r15)
    22cd:	44 89 e7             	mov    %r12d,%edi
    22d0:	e8 cb ed ff ff       	callq  10a0 <close@plt>
    22d5:	b8 ff ff ff ff       	mov    $0xffffffff,%eax
    22da:	e9 2f 04 00 00       	jmpq   270e <submitr+0x690>
    22df:	48 b8 45 72 72 6f 72 	movabs $0x55203a726f727245,%rax
    22e6:	3a 20 55 
    22e9:	48 ba 6e 61 62 6c 65 	movabs $0x6f7420656c62616e,%rdx
    22f0:	20 74 6f 
    22f3:	49 89 07             	mov    %rax,(%r15)
    22f6:	49 89 57 08          	mov    %rdx,0x8(%r15)
    22fa:	48 b8 20 63 6f 6e 6e 	movabs $0x7463656e6e6f6320,%rax
    2301:	65 63 74 
    2304:	48 ba 20 74 6f 20 74 	movabs $0x20656874206f7420,%rdx
    230b:	68 65 20 
    230e:	49 89 47 10          	mov    %rax,0x10(%r15)
    2312:	49 89 57 18          	mov    %rdx,0x18(%r15)
    2316:	41 c7 47 20 73 65 72 	movl   $0x76726573,0x20(%r15)
    231d:	76 
    231e:	66 41 c7 47 24 65 72 	movw   $0x7265,0x24(%r15)
    2325:	41 c6 47 26 00       	movb   $0x0,0x26(%r15)
    232a:	44 89 e7             	mov    %r12d,%edi
    232d:	e8 6e ed ff ff       	callq  10a0 <close@plt>
    2332:	b8 ff ff ff ff       	mov    $0xffffffff,%eax
    2337:	e9 d2 03 00 00       	jmpq   270e <submitr+0x690>
    233c:	48 b8 45 72 72 6f 72 	movabs $0x52203a726f727245,%rax
    2343:	3a 20 52 
    2346:	48 ba 65 73 75 6c 74 	movabs $0x747320746c757365,%rdx
    234d:	20 73 74 
    2350:	49 89 07             	mov    %rax,(%r15)
    2353:	49 89 57 08          	mov    %rdx,0x8(%r15)
    2357:	48 b8 72 69 6e 67 20 	movabs $0x6f6f7420676e6972,%rax
    235e:	74 6f 6f 
    2361:	48 ba 20 6c 61 72 67 	movabs $0x202e656772616c20,%rdx
    2368:	65 2e 20 
    236b:	49 89 47 10          	mov    %rax,0x10(%r15)
    236f:	49 89 57 18          	mov    %rdx,0x18(%r15)
    2373:	48 b8 49 6e 63 72 65 	movabs $0x6573616572636e49,%rax
    237a:	61 73 65 
    237d:	48 ba 20 53 55 42 4d 	movabs $0x5254494d42555320,%rdx
    2384:	49 54 52 
    2387:	49 89 47 20          	mov    %rax,0x20(%r15)
    238b:	49 89 57 28          	mov    %rdx,0x28(%r15)
    238f:	48 b8 5f 4d 41 58 42 	movabs $0x46554258414d5f,%rax
    2396:	55 46 00 
    2399:	49 89 47 30          	mov    %rax,0x30(%r15)
    239d:	44 89 e7             	mov    %r12d,%edi
    23a0:	e8 fb ec ff ff       	callq  10a0 <close@plt>
    23a5:	b8 ff ff ff ff       	mov    $0xffffffff,%eax
    23aa:	e9 5f 03 00 00       	jmpq   270e <submitr+0x690>
    23af:	49 0f a3 c5          	bt     %rax,%r13
    23b3:	73 21                	jae    23d6 <submitr+0x358>
    23b5:	44 88 45 00          	mov    %r8b,0x0(%rbp)
    23b9:	48 8d 6d 01          	lea    0x1(%rbp),%rbp
    23bd:	48 83 c3 01          	add    $0x1,%rbx
    23c1:	4c 39 f3             	cmp    %r14,%rbx
    23c4:	0f 84 6d 04 00 00    	je     2837 <submitr+0x7b9>
    23ca:	44 0f b6 03          	movzbl (%rbx),%r8d
    23ce:	41 8d 40 d6          	lea    -0x2a(%r8),%eax
    23d2:	3c 35                	cmp    $0x35,%al
    23d4:	76 d9                	jbe    23af <submitr+0x331>
    23d6:	44 89 c0             	mov    %r8d,%eax
    23d9:	83 e0 df             	and    $0xffffffdf,%eax
    23dc:	83 e8 41             	sub    $0x41,%eax
    23df:	3c 19                	cmp    $0x19,%al
    23e1:	76 d2                	jbe    23b5 <submitr+0x337>
    23e3:	41 80 f8 20          	cmp    $0x20,%r8b
    23e7:	74 60                	je     2449 <submitr+0x3cb>
    23e9:	41 8d 40 e0          	lea    -0x20(%r8),%eax
    23ed:	3c 5f                	cmp    $0x5f,%al
    23ef:	76 0a                	jbe    23fb <submitr+0x37d>
    23f1:	41 80 f8 09          	cmp    $0x9,%r8b
    23f5:	0f 85 af 03 00 00    	jne    27aa <submitr+0x72c>
    23fb:	45 0f b6 c0          	movzbl %r8b,%r8d
    23ff:	48 8d 0d 12 0f 00 00 	lea    0xf12(%rip),%rcx        # 3318 <array.3418+0x538>
    2406:	ba 08 00 00 00       	mov    $0x8,%edx
    240b:	be 01 00 00 00       	mov    $0x1,%esi
    2410:	48 8b 7c 24 28       	mov    0x28(%rsp),%rdi
    2415:	b8 00 00 00 00       	mov    $0x0,%eax
    241a:	e8 91 ed ff ff       	callq  11b0 <__sprintf_chk@plt>
    241f:	0f b6 84 24 60 80 00 	movzbl 0x8060(%rsp),%eax
    2426:	00 
    2427:	88 45 00             	mov    %al,0x0(%rbp)
    242a:	0f b6 84 24 61 80 00 	movzbl 0x8061(%rsp),%eax
    2431:	00 
    2432:	88 45 01             	mov    %al,0x1(%rbp)
    2435:	0f b6 84 24 62 80 00 	movzbl 0x8062(%rsp),%eax
    243c:	00 
    243d:	88 45 02             	mov    %al,0x2(%rbp)
    2440:	48 8d 6d 03          	lea    0x3(%rbp),%rbp
    2444:	e9 74 ff ff ff       	jmpq   23bd <submitr+0x33f>
    2449:	c6 45 00 2b          	movb   $0x2b,0x0(%rbp)
    244d:	48 8d 6d 01          	lea    0x1(%rbp),%rbp
    2451:	e9 67 ff ff ff       	jmpq   23bd <submitr+0x33f>
    2456:	49 01 c5             	add    %rax,%r13
    2459:	48 29 c5             	sub    %rax,%rbp
    245c:	74 26                	je     2484 <submitr+0x406>
    245e:	48 89 ea             	mov    %rbp,%rdx
    2461:	4c 89 ee             	mov    %r13,%rsi
    2464:	44 89 e7             	mov    %r12d,%edi
    2467:	e8 04 ec ff ff       	callq  1070 <write@plt>
    246c:	48 85 c0             	test   %rax,%rax
    246f:	7f e5                	jg     2456 <submitr+0x3d8>
    2471:	e8 ca eb ff ff       	callq  1040 <__errno_location@plt>
    2476:	83 38 04             	cmpl   $0x4,(%rax)
    2479:	0f 85 31 01 00 00    	jne    25b0 <submitr+0x532>
    247f:	4c 89 f0             	mov    %r14,%rax
    2482:	eb d2                	jmp    2456 <submitr+0x3d8>
    2484:	48 85 db             	test   %rbx,%rbx
    2487:	0f 88 23 01 00 00    	js     25b0 <submitr+0x532>
    248d:	44 89 64 24 50       	mov    %r12d,0x50(%rsp)
    2492:	c7 44 24 54 00 00 00 	movl   $0x0,0x54(%rsp)
    2499:	00 
    249a:	48 8d 7c 24 50       	lea    0x50(%rsp),%rdi
    249f:	48 8d 47 10          	lea    0x10(%rdi),%rax
    24a3:	48 89 44 24 58       	mov    %rax,0x58(%rsp)
    24a8:	48 8d b4 24 60 20 00 	lea    0x2060(%rsp),%rsi
    24af:	00 
    24b0:	ba 00 20 00 00       	mov    $0x2000,%edx
    24b5:	e8 08 fb ff ff       	callq  1fc2 <rio_readlineb>
    24ba:	48 85 c0             	test   %rax,%rax
    24bd:	0f 8e 4c 01 00 00    	jle    260f <submitr+0x591>
    24c3:	48 8d 4c 24 3c       	lea    0x3c(%rsp),%rcx
    24c8:	48 8d 94 24 60 60 00 	lea    0x6060(%rsp),%rdx
    24cf:	00 
    24d0:	48 8d bc 24 60 20 00 	lea    0x2060(%rsp),%rdi
    24d7:	00 
    24d8:	4c 8d 84 24 60 80 00 	lea    0x8060(%rsp),%r8
    24df:	00 
    24e0:	48 8d 35 38 0e 00 00 	lea    0xe38(%rip),%rsi        # 331f <array.3418+0x53f>
    24e7:	b8 00 00 00 00       	mov    $0x0,%eax
    24ec:	e8 2f ec ff ff       	callq  1120 <__isoc99_sscanf@plt>
    24f1:	44 8b 44 24 3c       	mov    0x3c(%rsp),%r8d
    24f6:	41 81 f8 c8 00 00 00 	cmp    $0xc8,%r8d
    24fd:	0f 85 80 01 00 00    	jne    2683 <submitr+0x605>
    2503:	48 8d 9c 24 60 20 00 	lea    0x2060(%rsp),%rbx
    250a:	00 
    250b:	48 8d 2d 1e 0e 00 00 	lea    0xe1e(%rip),%rbp        # 3330 <array.3418+0x550>
    2512:	4c 8d 6c 24 50       	lea    0x50(%rsp),%r13
    2517:	b9 03 00 00 00       	mov    $0x3,%ecx
    251c:	48 89 de             	mov    %rbx,%rsi
    251f:	48 89 ef             	mov    %rbp,%rdi
    2522:	f3 a6                	repz cmpsb %es:(%rdi),%ds:(%rsi)
    2524:	0f 97 c0             	seta   %al
    2527:	1c 00                	sbb    $0x0,%al
    2529:	84 c0                	test   %al,%al
    252b:	0f 84 89 01 00 00    	je     26ba <submitr+0x63c>
    2531:	ba 00 20 00 00       	mov    $0x2000,%edx
    2536:	48 89 de             	mov    %rbx,%rsi
    2539:	4c 89 ef             	mov    %r13,%rdi
    253c:	e8 81 fa ff ff       	callq  1fc2 <rio_readlineb>
    2541:	48 85 c0             	test   %rax,%rax
    2544:	7f d1                	jg     2517 <submitr+0x499>
    2546:	48 b8 45 72 72 6f 72 	movabs $0x43203a726f727245,%rax
    254d:	3a 20 43 
    2550:	48 ba 6c 69 65 6e 74 	movabs $0x6e7520746e65696c,%rdx
    2557:	20 75 6e 
    255a:	49 89 07             	mov    %rax,(%r15)
    255d:	49 89 57 08          	mov    %rdx,0x8(%r15)
    2561:	48 b8 61 62 6c 65 20 	movabs $0x206f7420656c6261,%rax
    2568:	74 6f 20 
    256b:	48 ba 72 65 61 64 20 	movabs $0x6165682064616572,%rdx
    2572:	68 65 61 
    2575:	49 89 47 10          	mov    %rax,0x10(%r15)
    2579:	49 89 57 18          	mov    %rdx,0x18(%r15)
    257d:	48 b8 64 65 72 73 20 	movabs $0x6f72662073726564,%rax
    2584:	66 72 6f 
    2587:	48 ba 6d 20 73 65 72 	movabs $0x726576726573206d,%rdx
    258e:	76 65 72 
    2591:	49 89 47 20          	mov    %rax,0x20(%r15)
    2595:	49 89 57 28          	mov    %rdx,0x28(%r15)
    2599:	41 c6 47 30 00       	movb   $0x0,0x30(%r15)
    259e:	44 89 e7             	mov    %r12d,%edi
    25a1:	e8 fa ea ff ff       	callq  10a0 <close@plt>
    25a6:	b8 ff ff ff ff       	mov    $0xffffffff,%eax
    25ab:	e9 5e 01 00 00       	jmpq   270e <submitr+0x690>
    25b0:	48 b8 45 72 72 6f 72 	movabs $0x43203a726f727245,%rax
    25b7:	3a 20 43 
    25ba:	48 ba 6c 69 65 6e 74 	movabs $0x6e7520746e65696c,%rdx
    25c1:	20 75 6e 
    25c4:	49 89 07             	mov    %rax,(%r15)
    25c7:	49 89 57 08          	mov    %rdx,0x8(%r15)
    25cb:	48 b8 61 62 6c 65 20 	movabs $0x206f7420656c6261,%rax
    25d2:	74 6f 20 
    25d5:	48 ba 77 72 69 74 65 	movabs $0x6f74206574697277,%rdx
    25dc:	20 74 6f 
    25df:	49 89 47 10          	mov    %rax,0x10(%r15)
    25e3:	49 89 57 18          	mov    %rdx,0x18(%r15)
    25e7:	48 b8 20 74 68 65 20 	movabs $0x7265732065687420,%rax
    25ee:	73 65 72 
    25f1:	49 89 47 20          	mov    %rax,0x20(%r15)
    25f5:	41 c7 47 28 76 65 72 	movl   $0x726576,0x28(%r15)
    25fc:	00 
    25fd:	44 89 e7             	mov    %r12d,%edi
    2600:	e8 9b ea ff ff       	callq  10a0 <close@plt>
    2605:	b8 ff ff ff ff       	mov    $0xffffffff,%eax
    260a:	e9 ff 00 00 00       	jmpq   270e <submitr+0x690>
    260f:	48 b8 45 72 72 6f 72 	movabs $0x43203a726f727245,%rax
    2616:	3a 20 43 
    2619:	48 ba 6c 69 65 6e 74 	movabs $0x6e7520746e65696c,%rdx
    2620:	20 75 6e 
    2623:	49 89 07             	mov    %rax,(%r15)
    2626:	49 89 57 08          	mov    %rdx,0x8(%r15)
    262a:	48 b8 61 62 6c 65 20 	movabs $0x206f7420656c6261,%rax
    2631:	74 6f 20 
    2634:	48 ba 72 65 61 64 20 	movabs $0x7269662064616572,%rdx
    263b:	66 69 72 
    263e:	49 89 47 10          	mov    %rax,0x10(%r15)
    2642:	49 89 57 18          	mov    %rdx,0x18(%r15)
    2646:	48 b8 73 74 20 68 65 	movabs $0x6564616568207473,%rax
    264d:	61 64 65 
    2650:	48 ba 72 20 66 72 6f 	movabs $0x73206d6f72662072,%rdx
    2657:	6d 20 73 
    265a:	49 89 47 20          	mov    %rax,0x20(%r15)
    265e:	49 89 57 28          	mov    %rdx,0x28(%r15)
    2662:	41 c7 47 30 65 72 76 	movl   $0x65767265,0x30(%r15)
    2669:	65 
    266a:	66 41 c7 47 34 72 00 	movw   $0x72,0x34(%r15)
    2671:	44 89 e7             	mov    %r12d,%edi
    2674:	e8 27 ea ff ff       	callq  10a0 <close@plt>
    2679:	b8 ff ff ff ff       	mov    $0xffffffff,%eax
    267e:	e9 8b 00 00 00       	jmpq   270e <submitr+0x690>
    2683:	4c 8d 8c 24 60 80 00 	lea    0x8060(%rsp),%r9
    268a:	00 
    268b:	48 8d 0d d6 0b 00 00 	lea    0xbd6(%rip),%rcx        # 3268 <array.3418+0x488>
    2692:	48 c7 c2 ff ff ff ff 	mov    $0xffffffffffffffff,%rdx
    2699:	be 01 00 00 00       	mov    $0x1,%esi
    269e:	4c 89 ff             	mov    %r15,%rdi
    26a1:	b8 00 00 00 00       	mov    $0x0,%eax
    26a6:	e8 05 eb ff ff       	callq  11b0 <__sprintf_chk@plt>
    26ab:	44 89 e7             	mov    %r12d,%edi
    26ae:	e8 ed e9 ff ff       	callq  10a0 <close@plt>
    26b3:	b8 ff ff ff ff       	mov    $0xffffffff,%eax
    26b8:	eb 54                	jmp    270e <submitr+0x690>
    26ba:	48 8d b4 24 60 20 00 	lea    0x2060(%rsp),%rsi
    26c1:	00 
    26c2:	48 8d 7c 24 50       	lea    0x50(%rsp),%rdi
    26c7:	ba 00 20 00 00       	mov    $0x2000,%edx
    26cc:	e8 f1 f8 ff ff       	callq  1fc2 <rio_readlineb>
    26d1:	48 85 c0             	test   %rax,%rax
    26d4:	7e 61                	jle    2737 <submitr+0x6b9>
    26d6:	48 8d b4 24 60 20 00 	lea    0x2060(%rsp),%rsi
    26dd:	00 
    26de:	4c 89 ff             	mov    %r15,%rdi
    26e1:	e8 6a e9 ff ff       	callq  1050 <strcpy@plt>
    26e6:	44 89 e7             	mov    %r12d,%edi
    26e9:	e8 b2 e9 ff ff       	callq  10a0 <close@plt>
    26ee:	b9 03 00 00 00       	mov    $0x3,%ecx
    26f3:	48 8d 3d 39 0c 00 00 	lea    0xc39(%rip),%rdi        # 3333 <array.3418+0x553>
    26fa:	4c 89 fe             	mov    %r15,%rsi
    26fd:	f3 a6                	repz cmpsb %es:(%rdi),%ds:(%rsi)
    26ff:	0f 97 c0             	seta   %al
    2702:	1c 00                	sbb    $0x0,%al
    2704:	84 c0                	test   %al,%al
    2706:	0f 95 c0             	setne  %al
    2709:	0f b6 c0             	movzbl %al,%eax
    270c:	f7 d8                	neg    %eax
    270e:	48 8b 94 24 68 a0 00 	mov    0xa068(%rsp),%rdx
    2715:	00 
    2716:	64 48 33 14 25 28 00 	xor    %fs:0x28,%rdx
    271d:	00 00 
    271f:	0f 85 95 01 00 00    	jne    28ba <submitr+0x83c>
    2725:	48 81 c4 78 a0 00 00 	add    $0xa078,%rsp
    272c:	5b                   	pop    %rbx
    272d:	5d                   	pop    %rbp
    272e:	41 5c                	pop    %r12
    2730:	41 5d                	pop    %r13
    2732:	41 5e                	pop    %r14
    2734:	41 5f                	pop    %r15
    2736:	c3                   	retq   
    2737:	48 b8 45 72 72 6f 72 	movabs $0x43203a726f727245,%rax
    273e:	3a 20 43 
    2741:	48 ba 6c 69 65 6e 74 	movabs $0x6e7520746e65696c,%rdx
    2748:	20 75 6e 
    274b:	49 89 07             	mov    %rax,(%r15)
    274e:	49 89 57 08          	mov    %rdx,0x8(%r15)
    2752:	48 b8 61 62 6c 65 20 	movabs $0x206f7420656c6261,%rax
    2759:	74 6f 20 
    275c:	48 ba 72 65 61 64 20 	movabs $0x6174732064616572,%rdx
    2763:	73 74 61 
    2766:	49 89 47 10          	mov    %rax,0x10(%r15)
    276a:	49 89 57 18          	mov    %rdx,0x18(%r15)
    276e:	48 b8 74 75 73 20 6d 	movabs $0x7373656d20737574,%rax
    2775:	65 73 73 
    2778:	48 ba 61 67 65 20 66 	movabs $0x6d6f726620656761,%rdx
    277f:	72 6f 6d 
    2782:	49 89 47 20          	mov    %rax,0x20(%r15)
    2786:	49 89 57 28          	mov    %rdx,0x28(%r15)
    278a:	48 b8 20 73 65 72 76 	movabs $0x72657672657320,%rax
    2791:	65 72 00 
    2794:	49 89 47 30          	mov    %rax,0x30(%r15)
    2798:	44 89 e7             	mov    %r12d,%edi
    279b:	e8 00 e9 ff ff       	callq  10a0 <close@plt>
    27a0:	b8 ff ff ff ff       	mov    $0xffffffff,%eax
    27a5:	e9 64 ff ff ff       	jmpq   270e <submitr+0x690>
    27aa:	48 b8 45 72 72 6f 72 	movabs $0x52203a726f727245,%rax
    27b1:	3a 20 52 
    27b4:	48 ba 65 73 75 6c 74 	movabs $0x747320746c757365,%rdx
    27bb:	20 73 74 
    27be:	49 89 07             	mov    %rax,(%r15)
    27c1:	49 89 57 08          	mov    %rdx,0x8(%r15)
    27c5:	48 b8 72 69 6e 67 20 	movabs $0x6e6f6320676e6972,%rax
    27cc:	63 6f 6e 
    27cf:	48 ba 74 61 69 6e 73 	movabs $0x6e6120736e696174,%rdx
    27d6:	20 61 6e 
    27d9:	49 89 47 10          	mov    %rax,0x10(%r15)
    27dd:	49 89 57 18          	mov    %rdx,0x18(%r15)
    27e1:	48 b8 20 69 6c 6c 65 	movabs $0x6c6167656c6c6920,%rax
    27e8:	67 61 6c 
    27eb:	48 ba 20 6f 72 20 75 	movabs $0x72706e7520726f20,%rdx
    27f2:	6e 70 72 
    27f5:	49 89 47 20          	mov    %rax,0x20(%r15)
    27f9:	49 89 57 28          	mov    %rdx,0x28(%r15)
    27fd:	48 b8 69 6e 74 61 62 	movabs $0x20656c6261746e69,%rax
    2804:	6c 65 20 
    2807:	48 ba 63 68 61 72 61 	movabs $0x6574636172616863,%rdx
    280e:	63 74 65 
    2811:	49 89 47 30          	mov    %rax,0x30(%r15)
    2815:	49 89 57 38          	mov    %rdx,0x38(%r15)
    2819:	66 41 c7 47 40 72 2e 	movw   $0x2e72,0x40(%r15)
    2820:	41 c6 47 42 00       	movb   $0x0,0x42(%r15)
    2825:	44 89 e7             	mov    %r12d,%edi
    2828:	e8 73 e8 ff ff       	callq  10a0 <close@plt>
    282d:	b8 ff ff ff ff       	mov    $0xffffffff,%eax
    2832:	e9 d7 fe ff ff       	jmpq   270e <submitr+0x690>
    2837:	48 8d 9c 24 60 20 00 	lea    0x2060(%rsp),%rbx
    283e:	00 
    283f:	48 83 ec 08          	sub    $0x8,%rsp
    2843:	48 8d 84 24 68 40 00 	lea    0x4068(%rsp),%rax
    284a:	00 
    284b:	50                   	push   %rax
    284c:	ff 74 24 28          	pushq  0x28(%rsp)
    2850:	ff 74 24 38          	pushq  0x38(%rsp)
    2854:	4c 8b 4c 24 30       	mov    0x30(%rsp),%r9
    2859:	4c 8b 44 24 28       	mov    0x28(%rsp),%r8
    285e:	48 8d 0d 33 0a 00 00 	lea    0xa33(%rip),%rcx        # 3298 <array.3418+0x4b8>
    2865:	ba 00 20 00 00       	mov    $0x2000,%edx
    286a:	be 01 00 00 00       	mov    $0x1,%esi
    286f:	48 89 df             	mov    %rbx,%rdi
    2872:	b8 00 00 00 00       	mov    $0x0,%eax
    2877:	e8 34 e9 ff ff       	callq  11b0 <__sprintf_chk@plt>
    287c:	48 c7 c1 ff ff ff ff 	mov    $0xffffffffffffffff,%rcx
    2883:	b8 00 00 00 00       	mov    $0x0,%eax
    2888:	48 89 df             	mov    %rbx,%rdi
    288b:	f2 ae                	repnz scas %es:(%rdi),%al
    288d:	48 f7 d1             	not    %rcx
    2890:	48 89 cb             	mov    %rcx,%rbx
    2893:	48 83 eb 01          	sub    $0x1,%rbx
    2897:	48 83 c4 20          	add    $0x20,%rsp
    289b:	48 89 dd             	mov    %rbx,%rbp
    289e:	4c 8d ac 24 60 20 00 	lea    0x2060(%rsp),%r13
    28a5:	00 
    28a6:	41 be 00 00 00 00    	mov    $0x0,%r14d
    28ac:	48 85 db             	test   %rbx,%rbx
    28af:	0f 85 a9 fb ff ff    	jne    245e <submitr+0x3e0>
    28b5:	e9 d3 fb ff ff       	jmpq   248d <submitr+0x40f>
    28ba:	e8 c1 e7 ff ff       	callq  1080 <__stack_chk_fail@plt>

00000000000028bf <init_timeout>:
    28bf:	85 ff                	test   %edi,%edi
    28c1:	74 25                	je     28e8 <init_timeout+0x29>
    28c3:	53                   	push   %rbx
    28c4:	89 fb                	mov    %edi,%ebx
    28c6:	48 8d 35 c5 f6 ff ff 	lea    -0x93b(%rip),%rsi        # 1f92 <sigalrm_handler>
    28cd:	bf 0e 00 00 00       	mov    $0xe,%edi
    28d2:	e8 f9 e7 ff ff       	callq  10d0 <signal@plt>
    28d7:	85 db                	test   %ebx,%ebx
    28d9:	bf 00 00 00 00       	mov    $0x0,%edi
    28de:	0f 49 fb             	cmovns %ebx,%edi
    28e1:	e8 aa e7 ff ff       	callq  1090 <alarm@plt>
    28e6:	5b                   	pop    %rbx
    28e7:	c3                   	retq   
    28e8:	f3 c3                	repz retq 

00000000000028ea <init_driver>:
    28ea:	41 54                	push   %r12
    28ec:	55                   	push   %rbp
    28ed:	53                   	push   %rbx
    28ee:	48 83 ec 20          	sub    $0x20,%rsp
    28f2:	49 89 fc             	mov    %rdi,%r12
    28f5:	64 48 8b 04 25 28 00 	mov    %fs:0x28,%rax
    28fc:	00 00 
    28fe:	48 89 44 24 18       	mov    %rax,0x18(%rsp)
    2903:	31 c0                	xor    %eax,%eax
    2905:	be 01 00 00 00       	mov    $0x1,%esi
    290a:	bf 0d 00 00 00       	mov    $0xd,%edi
    290f:	e8 bc e7 ff ff       	callq  10d0 <signal@plt>
    2914:	be 01 00 00 00       	mov    $0x1,%esi
    2919:	bf 1d 00 00 00       	mov    $0x1d,%edi
    291e:	e8 ad e7 ff ff       	callq  10d0 <signal@plt>
    2923:	be 01 00 00 00       	mov    $0x1,%esi
    2928:	bf 1d 00 00 00       	mov    $0x1d,%edi
    292d:	e8 9e e7 ff ff       	callq  10d0 <signal@plt>
    2932:	ba 00 00 00 00       	mov    $0x0,%edx
    2937:	be 01 00 00 00       	mov    $0x1,%esi
    293c:	bf 02 00 00 00       	mov    $0x2,%edi
    2941:	e8 7a e8 ff ff       	callq  11c0 <socket@plt>
    2946:	85 c0                	test   %eax,%eax
    2948:	0f 88 a3 00 00 00    	js     29f1 <init_driver+0x107>
    294e:	89 c3                	mov    %eax,%ebx
    2950:	48 8d 3d 74 07 00 00 	lea    0x774(%rip),%rdi        # 30cb <array.3418+0x2eb>
    2957:	e8 84 e7 ff ff       	callq  10e0 <gethostbyname@plt>
    295c:	48 85 c0             	test   %rax,%rax
    295f:	0f 84 df 00 00 00    	je     2a44 <init_driver+0x15a>
    2965:	48 89 e5             	mov    %rsp,%rbp
    2968:	48 c7 44 24 02 00 00 	movq   $0x0,0x2(%rsp)
    296f:	00 00 
    2971:	c7 45 0a 00 00 00 00 	movl   $0x0,0xa(%rbp)
    2978:	66 c7 45 0e 00 00    	movw   $0x0,0xe(%rbp)
    297e:	66 c7 04 24 02 00    	movw   $0x2,(%rsp)
    2984:	48 63 50 14          	movslq 0x14(%rax),%rdx
    2988:	48 8b 40 18          	mov    0x18(%rax),%rax
    298c:	48 8d 7d 04          	lea    0x4(%rbp),%rdi
    2990:	b9 0c 00 00 00       	mov    $0xc,%ecx
    2995:	48 8b 30             	mov    (%rax),%rsi
    2998:	e8 53 e7 ff ff       	callq  10f0 <__memmove_chk@plt>
    299d:	66 c7 44 24 02 3b 6e 	movw   $0x6e3b,0x2(%rsp)
    29a4:	ba 10 00 00 00       	mov    $0x10,%edx
    29a9:	48 89 ee             	mov    %rbp,%rsi
    29ac:	89 df                	mov    %ebx,%edi
    29ae:	e8 bd e7 ff ff       	callq  1170 <connect@plt>
    29b3:	85 c0                	test   %eax,%eax
    29b5:	0f 88 fb 00 00 00    	js     2ab6 <init_driver+0x1cc>
    29bb:	89 df                	mov    %ebx,%edi
    29bd:	e8 de e6 ff ff       	callq  10a0 <close@plt>
    29c2:	66 41 c7 04 24 4f 4b 	movw   $0x4b4f,(%r12)
    29c9:	41 c6 44 24 02 00    	movb   $0x0,0x2(%r12)
    29cf:	b8 00 00 00 00       	mov    $0x0,%eax
    29d4:	48 8b 4c 24 18       	mov    0x18(%rsp),%rcx
    29d9:	64 48 33 0c 25 28 00 	xor    %fs:0x28,%rcx
    29e0:	00 00 
    29e2:	0f 85 06 01 00 00    	jne    2aee <init_driver+0x204>
    29e8:	48 83 c4 20          	add    $0x20,%rsp
    29ec:	5b                   	pop    %rbx
    29ed:	5d                   	pop    %rbp
    29ee:	41 5c                	pop    %r12
    29f0:	c3                   	retq   
    29f1:	48 b8 45 72 72 6f 72 	movabs $0x43203a726f727245,%rax
    29f8:	3a 20 43 
    29fb:	48 ba 6c 69 65 6e 74 	movabs $0x6e7520746e65696c,%rdx
    2a02:	20 75 6e 
    2a05:	49 89 04 24          	mov    %rax,(%r12)
    2a09:	49 89 54 24 08       	mov    %rdx,0x8(%r12)
    2a0e:	48 b8 61 62 6c 65 20 	movabs $0x206f7420656c6261,%rax
    2a15:	74 6f 20 
    2a18:	48 ba 63 72 65 61 74 	movabs $0x7320657461657263,%rdx
    2a1f:	65 20 73 
    2a22:	49 89 44 24 10       	mov    %rax,0x10(%r12)
    2a27:	49 89 54 24 18       	mov    %rdx,0x18(%r12)
    2a2c:	41 c7 44 24 20 6f 63 	movl   $0x656b636f,0x20(%r12)
    2a33:	6b 65 
    2a35:	66 41 c7 44 24 24 74 	movw   $0x74,0x24(%r12)
    2a3c:	00 
    2a3d:	b8 ff ff ff ff       	mov    $0xffffffff,%eax
    2a42:	eb 90                	jmp    29d4 <init_driver+0xea>
    2a44:	48 b8 45 72 72 6f 72 	movabs $0x44203a726f727245,%rax
    2a4b:	3a 20 44 
    2a4e:	48 ba 4e 53 20 69 73 	movabs $0x6e7520736920534e,%rdx
    2a55:	20 75 6e 
    2a58:	49 89 04 24          	mov    %rax,(%r12)
    2a5c:	49 89 54 24 08       	mov    %rdx,0x8(%r12)
    2a61:	48 b8 61 62 6c 65 20 	movabs $0x206f7420656c6261,%rax
    2a68:	74 6f 20 
    2a6b:	48 ba 72 65 73 6f 6c 	movabs $0x2065766c6f736572,%rdx
    2a72:	76 65 20 
    2a75:	49 89 44 24 10       	mov    %rax,0x10(%r12)
    2a7a:	49 89 54 24 18       	mov    %rdx,0x18(%r12)
    2a7f:	48 b8 73 65 72 76 65 	movabs $0x6120726576726573,%rax
    2a86:	72 20 61 
    2a89:	49 89 44 24 20       	mov    %rax,0x20(%r12)
    2a8e:	41 c7 44 24 28 64 64 	movl   $0x65726464,0x28(%r12)
    2a95:	72 65 
    2a97:	66 41 c7 44 24 2c 73 	movw   $0x7373,0x2c(%r12)
    2a9e:	73 
    2a9f:	41 c6 44 24 2e 00    	movb   $0x0,0x2e(%r12)
    2aa5:	89 df                	mov    %ebx,%edi
    2aa7:	e8 f4 e5 ff ff       	callq  10a0 <close@plt>
    2aac:	b8 ff ff ff ff       	mov    $0xffffffff,%eax
    2ab1:	e9 1e ff ff ff       	jmpq   29d4 <init_driver+0xea>
    2ab6:	4c 8d 05 0e 06 00 00 	lea    0x60e(%rip),%r8        # 30cb <array.3418+0x2eb>
    2abd:	48 8d 0d 2c 08 00 00 	lea    0x82c(%rip),%rcx        # 32f0 <array.3418+0x510>
    2ac4:	48 c7 c2 ff ff ff ff 	mov    $0xffffffffffffffff,%rdx
    2acb:	be 01 00 00 00       	mov    $0x1,%esi
    2ad0:	4c 89 e7             	mov    %r12,%rdi
    2ad3:	b8 00 00 00 00       	mov    $0x0,%eax
    2ad8:	e8 d3 e6 ff ff       	callq  11b0 <__sprintf_chk@plt>
    2add:	89 df                	mov    %ebx,%edi
    2adf:	e8 bc e5 ff ff       	callq  10a0 <close@plt>
    2ae4:	b8 ff ff ff ff       	mov    $0xffffffff,%eax
    2ae9:	e9 e6 fe ff ff       	jmpq   29d4 <init_driver+0xea>
    2aee:	e8 8d e5 ff ff       	callq  1080 <__stack_chk_fail@plt>

0000000000002af3 <driver_post>:
    2af3:	53                   	push   %rbx
    2af4:	4c 89 c3             	mov    %r8,%rbx
    2af7:	85 c9                	test   %ecx,%ecx
    2af9:	75 17                	jne    2b12 <driver_post+0x1f>
    2afb:	48 85 ff             	test   %rdi,%rdi
    2afe:	74 05                	je     2b05 <driver_post+0x12>
    2b00:	80 3f 00             	cmpb   $0x0,(%rdi)
    2b03:	75 33                	jne    2b38 <driver_post+0x45>
    2b05:	66 c7 03 4f 4b       	movw   $0x4b4f,(%rbx)
    2b0a:	c6 43 02 00          	movb   $0x0,0x2(%rbx)
    2b0e:	89 c8                	mov    %ecx,%eax
    2b10:	5b                   	pop    %rbx
    2b11:	c3                   	retq   
    2b12:	48 8d 35 1d 08 00 00 	lea    0x81d(%rip),%rsi        # 3336 <array.3418+0x556>
    2b19:	bf 01 00 00 00       	mov    $0x1,%edi
    2b1e:	b8 00 00 00 00       	mov    $0x0,%eax
    2b23:	e8 08 e6 ff ff       	callq  1130 <__printf_chk@plt>
    2b28:	66 c7 03 4f 4b       	movw   $0x4b4f,(%rbx)
    2b2d:	c6 43 02 00          	movb   $0x0,0x2(%rbx)
    2b31:	b8 00 00 00 00       	mov    $0x0,%eax
    2b36:	eb d8                	jmp    2b10 <driver_post+0x1d>
    2b38:	41 50                	push   %r8
    2b3a:	52                   	push   %rdx
    2b3b:	4c 8d 0d 0b 08 00 00 	lea    0x80b(%rip),%r9        # 334d <array.3418+0x56d>
    2b42:	49 89 f0             	mov    %rsi,%r8
    2b45:	48 89 f9             	mov    %rdi,%rcx
    2b48:	48 8d 15 07 08 00 00 	lea    0x807(%rip),%rdx        # 3356 <array.3418+0x576>
    2b4f:	be 6e 3b 00 00       	mov    $0x3b6e,%esi
    2b54:	48 8d 3d 70 05 00 00 	lea    0x570(%rip),%rdi        # 30cb <array.3418+0x2eb>
    2b5b:	e8 1e f5 ff ff       	callq  207e <submitr>
    2b60:	48 83 c4 10          	add    $0x10,%rsp
    2b64:	eb aa                	jmp    2b10 <driver_post+0x1d>
    2b66:	66 2e 0f 1f 84 00 00 	nopw   %cs:0x0(%rax,%rax,1)
    2b6d:	00 00 00 

0000000000002b70 <__libc_csu_init>:
    2b70:	41 57                	push   %r15
    2b72:	41 56                	push   %r14
    2b74:	49 89 d7             	mov    %rdx,%r15
    2b77:	41 55                	push   %r13
    2b79:	41 54                	push   %r12
    2b7b:	4c 8d 25 66 11 20 00 	lea    0x201166(%rip),%r12        # 203ce8 <__frame_dummy_init_array_entry>
    2b82:	55                   	push   %rbp
    2b83:	48 8d 2d 66 11 20 00 	lea    0x201166(%rip),%rbp        # 203cf0 <__init_array_end>
    2b8a:	53                   	push   %rbx
    2b8b:	41 89 fd             	mov    %edi,%r13d
    2b8e:	49 89 f6             	mov    %rsi,%r14
    2b91:	4c 29 e5             	sub    %r12,%rbp
    2b94:	48 83 ec 08          	sub    $0x8,%rsp
    2b98:	48 c1 fd 03          	sar    $0x3,%rbp
    2b9c:	e8 57 e4 ff ff       	callq  ff8 <_init>
    2ba1:	48 85 ed             	test   %rbp,%rbp
    2ba4:	74 20                	je     2bc6 <__libc_csu_init+0x56>
    2ba6:	31 db                	xor    %ebx,%ebx
    2ba8:	0f 1f 84 00 00 00 00 	nopl   0x0(%rax,%rax,1)
    2baf:	00 
    2bb0:	4c 89 fa             	mov    %r15,%rdx
    2bb3:	4c 89 f6             	mov    %r14,%rsi
    2bb6:	44 89 ef             	mov    %r13d,%edi
    2bb9:	41 ff 14 dc          	callq  *(%r12,%rbx,8)
    2bbd:	48 83 c3 01          	add    $0x1,%rbx
    2bc1:	48 39 dd             	cmp    %rbx,%rbp
    2bc4:	75 ea                	jne    2bb0 <__libc_csu_init+0x40>
    2bc6:	48 83 c4 08          	add    $0x8,%rsp
    2bca:	5b                   	pop    %rbx
    2bcb:	5d                   	pop    %rbp
    2bcc:	41 5c                	pop    %r12
    2bce:	41 5d                	pop    %r13
    2bd0:	41 5e                	pop    %r14
    2bd2:	41 5f                	pop    %r15
    2bd4:	c3                   	retq   
    2bd5:	90                   	nop
    2bd6:	66 2e 0f 1f 84 00 00 	nopw   %cs:0x0(%rax,%rax,1)
    2bdd:	00 00 00 

0000000000002be0 <__libc_csu_fini>:
    2be0:	f3 c3                	repz retq 

Disassembly of section .fini:

0000000000002be4 <_fini>:
    2be4:	48 83 ec 08          	sub    $0x8,%rsp
    2be8:	48 83 c4 08          	add    $0x8,%rsp
    2bec:	c3                   	retq   
